(dp0
S'PF03137'
p1
I0
sS'PF03130'
p2
I4602
sS'PF01280'
p3
I3
sS'PF01281'
p4
I4
sS'PF01282'
p5
I5
sS'PF01283'
p6
I6
sS'PF01286'
p7
I7
sS'PF01287'
p8
I8
sS'PF01288'
p9
I9
sS'PF01289'
p10
I10
sS'PF10664'
p11
I11
sS'PF10661'
p12
I13
sS'PF10662'
p13
I14
sS'PF10663'
p14
I15
sS'PF10668'
p15
I18
sS'PF00885'
p16
I213
sS'PF00732'
p17
I214
sS'PF00887'
p18
I216
sS'PF00886'
p19
I217
sS'PF00737'
p20
I219
sS'PF00736'
p21
I221
sS'PF00883'
p22
I32
sS'PF00734'
p23
I33
sS'PF00889'
p24
I34
sS'PF05547'
p25
I36
sS'PF08501'
p26
I37
sS'PF08502'
p27
I38
sS'PF05544'
p28
I253
sS'PF07050'
p29
I2628
sS'PF08507'
p30
I613
sS'PF05549'
p31
I296
sS'PF01424'
p32
I51
sS'PF01425'
p33
I52
sS'PF01427'
p34
I54
sS'PF01420'
p35
I55
sS'PF04417'
p36
I56
sS'PF01422'
p37
I57
sS'PF04143'
p38
I58
sS'PF01428'
p39
I60
sS'PF04149'
p40
I61
sS'PF10273'
p41
I64
sS'PF09630'
p42
I65
sS'PF10271'
p43
I3619
sS'PF09632'
p44
I67
sS'PF10276'
p45
I68
sS'PF09636'
p46
I69
sS'PF09639'
p47
I363
sS'PF09638'
p48
I364
sS'PF00089'
p49
I78
sS'PF00085'
p50
I80
sS'PF00084'
p51
I81
sS'PF00086'
p52
I82
sS'PF00081'
p53
I83
sS'PF00080'
p54
I84
sS'PF00083'
p55
I85
sS'PF00082'
p56
I86
sS'PF06213'
p57
I90
sS'PF07143'
p58
I96
sS'PF07142'
p59
I97
sS'PF07145'
p60
I98
sS'PF07148'
p61
I375
sS'PF06368'
p62
I111
sS'PF06819'
p63
I5182
sS'PF06815'
p64
I755
sS'PF06816'
p65
I118
sS'PF06366'
p66
I2576
sS'PF06812'
p67
I121
sS'PF06813'
p68
I766
sS'PF12537'
p69
I845
sS'PF12535'
p70
I847
sS'PF05870'
p71
I1274
sS'PF08889'
p72
I157
sS'PF08888'
p73
I158
sS'PF08885'
p74
I984
sS'PF08884'
p75
I5592
sS'PF02247'
p76
I161
sS'PF02246'
p77
I210
sS'PF08881'
p78
I163
sS'PF02240'
p79
I164
sS'PF08883'
p80
I165
sS'PF08882'
p81
I166
sS'PF01556'
p82
I5479
sS'PF10470'
p83
I172
sS'PF10476'
p84
I174
sS'PF03264'
p85
I178
sS'PF03266'
p86
I180
sS'PF03263'
p87
I181
sS'PF10783'
p88
I189
sS'PF10782'
p89
I190
sS'PF10781'
p90
I191
sS'PF10787'
p91
I192
sS'PF10786'
p92
I193
sS'PF10784'
p93
I1276
sS'PF10788'
p94
I197
sS'PF05048'
p95
I199
sS'PF05049'
p96
I200
sS'PF05738'
p97
I201
sS'PF05739'
p98
I202
sS'PF05043'
p99
I204
sS'PF05737'
p100
I205
sS'PF05047'
p101
I1385
sS'PF05732'
p102
I207
sS'PF05045'
p103
I208
sS'PF00733'
p104
I26
sS'PF00884'
p105
I27
sS'PF00731'
p106
I28
sS'PF00730'
p107
I29
sS'PF00881'
p108
I30
sS'PF00880'
p109
I31
sS'PF11788'
p110
I222
sS'PF00542'
p111
I5892
sS'PF06426'
p112
I2368
sS'PF00735'
p113
I226
sS'PF11781'
p114
I2200
sS'PF00882'
p115
I229
sS'PF06422'
p116
I230
sS'PF11431'
p117
I1677
sS'PF11436'
p118
I239
sS'PF11438'
p119
I241
sS'PF06750'
p120
I6019
sS'PF05545'
p121
I250
sS'PF01639'
p122
I251
sS'PF01638'
p123
I252
sS'PF08503'
p124
I558
sS'PF01633'
p125
I258
sS'PF01632'
p126
I259
sS'PF01634'
p127
I5271
sS'PF01637'
p128
I639
sS'PF01636'
p129
I5390
sS'PF08715'
p130
I673
sS'PF08242'
p131
I265
sS'PF08241'
p132
I266
sS'PF08240'
p133
I267
sS'PF08247'
p134
I268
sS'PF08245'
p135
I270
sS'PF08712'
p136
I1828
sS'PF08249'
p137
I273
sS'PF08248'
p138
I274
sS'PF08719'
p139
I275
sS'PF05958'
p140
I276
sS'PF04896'
p141
I277
sS'PF05951'
p142
I282
sS'PF05952'
p143
I283
sS'PF05953'
p144
I284
sS'PF05954'
p145
I285
sS'PF04230'
p146
I286
sS'PF05957'
p147
I6613
sS'PF04895'
p148
I289
sS'PF10839'
p149
I290
sS'PF04893'
p150
I295
sS'PF04891'
p151
I297
sS'PF12418'
p152
I299
sS'PF08236'
p153
I2278
sS'PF04413'
p154
I301
sS'PF04411'
p155
I6329
sS'PF04140'
p156
I305
sS'PF03354'
p157
I4649
sS'PF04142'
p158
I5139
sS'PF01423'
p159
I313
sS'PF03821'
p160
I314
sS'PF07772'
p161
I315
sS'PF03826'
p162
I4652
sS'PF03827'
p163
I317
sS'PF03824'
p164
I319
sS'PF03825'
p165
I4655
sS'PF04607'
p166
I323
sS'PF04606'
p167
I324
sS'PF04604'
p168
I325
sS'PF04602'
p169
I326
sS'PF04600'
p170
I328
sS'PF04609'
p171
I335
sS'PF04608'
p172
I336
sS'PF08827'
p173
I4660
sS'PF09633'
p174
I342
sS'PF08826'
p175
I344
sS'PF07804'
p176
I345
sS'PF07805'
p177
I346
sS'PF00270'
p178
I347
sS'PF00271'
p179
I348
sS'PF00276'
p180
I349
sS'PF07557'
p181
I350
sS'PF07554'
p182
I351
sS'PF00275'
p183
I352
sS'PF00278'
p184
I354
sS'PF07559'
p185
I355
sS'PF09634'
p186
I1426
sS'PF06603'
p187
I360
sS'PF06609'
p188
I361
sS'PF06608'
p189
I362
sS'PF05942'
p190
I6807
sS'PF00421'
p191
I365
sS'PF03079'
p192
I366
sS'PF03071'
p193
I367
sS'PF03070'
p194
I368
sS'PF03073'
p195
I369
sS'PF09244'
p196
I4669
sS'PF03382'
p197
I376
sS'PF09714'
p198
I4673
sS'PF03389'
p199
I2486
sS'PF12494'
p200
I388
sS'PF12492'
p201
I390
sS'PF02656'
p202
I397
sS'PF02657'
p203
I398
sS'PF02654'
p204
I399
sS'PF02655'
p205
I400
sS'PF02652'
p206
I401
sS'PF02653'
p207
I402
sS'PF02650'
p208
I403
sS'PF02659'
p209
I406
sS'PF02388'
p210
I407
sS'PF02381'
p211
I413
sS'PF02382'
p212
I2726
sS'PF02384'
p213
I416
sS'PF02386'
p214
I418
sS'PF02387'
p215
I419
sS'PF03927'
p216
I420
sS'PF03926'
p217
I421
sS'PF03925'
p218
I422
sS'PF03924'
p219
I423
sS'PF03923'
p220
I424
sS'PF03922'
p221
I425
sS'PF03929'
p222
I430
sS'PF03928'
p223
I431
sS'PF02033'
p224
I434
sS'PF02036'
p225
I435
sS'PF02037'
p226
I436
sS'PF02038'
p227
I438
sS'PF08942'
p228
I439
sS'PF08943'
p229
I443
sS'PF10648'
p230
I451
sS'PF10649'
p231
I452
sS'PF10646'
p232
I453
sS'PF10647'
p233
I454
sS'PF10643'
p234
I455
sS'PF05384'
p235
I458
sS'PF05387'
p236
I459
sS'PF05386'
p237
I460
sS'PF05382'
p238
I463
sS'PF05389'
p239
I464
sS'PF05388'
p240
I465
sS'PF04382'
p241
I467
sS'PF04383'
p242
I468
sS'PF04380'
p243
I469
sS'PF04381'
p244
I470
sS'PF04386'
p245
I471
sS'PF04384'
p246
I472
sS'PF04385'
p247
I473
sS'PF04388'
p248
I474
sS'PF04389'
p249
I475
sS'PF09381'
p250
I476
sS'PF09383'
p251
I477
sS'PF09382'
p252
I478
sS'PF09385'
p253
I479
sS'PF09439'
p254
I480
sS'PF09438'
p255
I481
sS'PF09388'
p256
I482
sS'PF09430'
p257
I483
sS'PF00719'
p258
I487
sS'PF00867'
p259
I488
sS'PF00866'
p260
I489
sS'PF00717'
p261
I490
sS'PF00863'
p262
I491
sS'PF00710'
p263
I492
sS'PF00861'
p264
I3230
sS'PF00712'
p265
I19
sS'PF05560'
p266
I495
sS'PF08528'
p267
I496
sS'PF08529'
p268
I497
sS'PF05565'
p269
I498
sS'PF05569'
p270
I500
sS'PF05568'
p271
I501
sS'PF08521'
p272
I502
sS'PF08526'
p273
I503
sS'PF08525'
p274
I504
sS'PF04168'
p275
I511
sS'PF04169'
p276
I4632
sS'PF01406'
p277
I513
sS'PF04167'
p278
I514
sS'PF04164'
p279
I515
sS'PF04165'
p280
I516
sS'PF01402'
p281
I517
sS'PF01401'
p282
I519
sS'PF09658'
p283
I520
sS'PF09653'
p284
I521
sS'PF09652'
p285
I522
sS'PF09651'
p286
I523
sS'PF09650'
p287
I524
sS'PF09657'
p288
I525
sS'PF09656'
p289
I526
sS'PF09655'
p290
I527
sS'PF09654'
p291
I528
sS'PF08388'
p292
I543
sS'PF08386'
p293
I544
sS'PF08384'
p294
I545
sS'PF08383'
p295
I546
sS'PF07129'
p296
I3628
sS'PF07122'
p297
I566
sS'PF07120'
p298
I567
sS'PF07126'
p299
I568
sS'PF07125'
p300
I569
sS'PF07124'
p301
I570
sS'PF06837'
p302
I571
sS'PF06834'
p303
I572
sS'PF06835'
p304
I573
sS'PF06832'
p305
I574
sS'PF06833'
p306
I575
sS'PF06831'
p307
I576
sS'PF11127'
p308
I577
sS'PF11120'
p309
I578
sS'PF06838'
p310
I579
sS'PF06839'
p311
I580
sS'PF11977'
p312
I4347
sS'PF10413'
p313
I622
sS'PF10412'
p314
I623
sS'PF10411'
p315
I624
sS'PF10410'
p316
I625
sS'PF10417'
p317
I626
sS'PF10416'
p318
I627
sS'PF10415'
p319
I628
sS'PF10414'
p320
I629
sS'PF10419'
p321
I631
sS'PF10418'
p322
I632
sS'PF11893'
p323
I635
sS'PF03719'
p324
I651
sS'PF03249'
p325
I653
sS'PF03714'
p326
I654
sS'PF03716'
p327
I655
sS'PF03717'
p328
I656
sS'PF03710'
p329
I657
sS'PF03711'
p330
I658
sS'PF03713'
p331
I659
sS'PF05717'
p332
I667
sS'PF05715'
p333
I668
sS'PF05713'
p334
I670
sS'PF05711'
p335
I671
sS'PF08815'
p336
I5373
sS'PF11363'
p337
I805
sS'PF12111'
p338
I694
sS'PF12112'
p339
I695
sS'PF12113'
p340
I696
sS'PF11368'
p341
I898
sS'PF01653'
p342
I715
sS'PF07545'
p343
I716
sS'PF01650'
p344
I4610
sS'PF01656'
p345
I719
sS'PF01655'
p346
I720
sS'PF01654'
p347
I721
sS'PF01658'
p348
I6734
sS'PF00267'
p349
I5890
sS'PF08464'
p350
I4846
sS'PF07541'
p351
I731
sS'PF07812'
p352
I735
sS'PF05972'
p353
I736
sS'PF05973'
p354
I737
sS'PF05970'
p355
I4701
sS'PF05971'
p356
I4702
sS'PF08269'
p357
I740
sS'PF07811'
p358
I741
sS'PF05974'
p359
I742
sS'PF05975'
p360
I743
sS'PF08265'
p361
I4715
sS'PF08264'
p362
I1597
sS'PF08267'
p363
I4723
sS'PF05979'
p364
I4782
sS'PF08261'
p365
I748
sS'PF08260'
p366
I1653
sS'PF08263'
p367
I1665
sS'PF08262'
p368
I4741
sS'PF00614'
p369
I4749
sS'PF00269'
p370
I763
sS'PF07548'
p371
I764
sS'PF06364'
p372
I6515
sS'PF06143'
p373
I768
sS'PF04592'
p374
I769
sS'PF04591'
p375
I770
sS'PF06145'
p376
I771
sS'PF07710'
p377
I772
sS'PF07714'
p378
I774
sS'PF07715'
p379
I775
sS'PF07716'
p380
I776
sS'PF07717'
p381
I777
sS'PF07719'
p382
I778
sS'PF05201'
p383
I780
sS'PF06990'
p384
I781
sS'PF06993'
p385
I782
sS'PF06992'
p386
I783
sS'PF06995'
p387
I784
sS'PF06994'
p388
I785
sS'PF06449'
p389
I786
sS'PF06996'
p390
I787
sS'PF06447'
p391
I788
sS'PF06998'
p392
I789
sS'PF06445'
p393
I790
sS'PF06444'
p394
I791
sS'PF06441'
p395
I792
sS'PF06440'
p396
I793
sS'PF04620'
p397
I5055
sS'PF04623'
p398
I679
sS'PF04625'
p399
I5065
sS'PF04624'
p400
I799
sS'PF04627'
p401
I2888
sS'PF08440'
p402
I813
sS'PF05305'
p403
I814
sS'PF00298'
p404
I815
sS'PF00299'
p405
I816
sS'PF07829'
p406
I817
sS'PF00294'
p407
I818
sS'PF00295'
p408
I819
sS'PF00296'
p409
I820
sS'PF00297'
p410
I5149
sS'PF00290'
p411
I822
sS'PF00291'
p412
I823
sS'PF07820'
p413
I824
sS'PF00293'
p414
I825
sS'PF06199'
p415
I826
sS'PF06669'
p416
I827
sS'PF01520'
p417
I4766
sS'PF06662'
p418
I4892
sS'PF06192'
p419
I5181
sS'PF06195'
p420
I833
sS'PF06666'
p421
I5191
sS'PF06197'
p422
I835
sS'PF06664'
p423
I4953
sS'PF03013'
p424
I837
sS'PF01522'
p425
I838
sS'PF05303'
p426
I839
sS'PF03015'
p427
I840
sS'PF03014'
p428
I841
sS'PF05302'
p429
I2450
sS'PF04007'
p430
I843
sS'PF00034'
p431
I4776
sS'PF03519'
p432
I2153
sS'PF12472'
p433
I858
sS'PF12470'
p434
I859
sS'PF02127'
p435
I2461
sS'PF03511'
p436
I863
sS'PF03040'
p437
I866
sS'PF02630'
p438
I869
sS'PF02631'
p439
I870
sS'PF02632'
p440
I871
sS'PF02633'
p441
I872
sS'PF02634'
p442
I873
sS'PF02635'
p443
I874
sS'PF02636'
p444
I875
sS'PF02637'
p445
I876
sS'PF02638'
p446
I877
sS'PF02639'
p447
I878
sS'PF03900'
p448
I888
sS'PF03905'
p449
I889
sS'PF03906'
p450
I890
sS'PF00904'
p451
I907
sS'PF00905'
p452
I908
sS'PF00900'
p453
I910
sS'PF00902'
p454
I911
sS'PF00903'
p455
I912
sS'PF10620'
p456
I913
sS'PF10622'
p457
I914
sS'PF10623'
p458
I915
sS'PF00908'
p459
I916
sS'PF00909'
p460
I917
sS'PF10626'
p461
I918
sS'PF10627'
p462
I919
sS'PF05368'
p463
I923
sS'PF05366'
p464
I925
sS'PF05363'
p465
I5946
sS'PF05362'
p466
I927
sS'PF05360'
p467
I5957
sS'PF04368'
p468
I932
sS'PF04369'
p469
I6249
sS'PF04364'
p470
I935
sS'PF04365'
p471
I936
sS'PF04366'
p472
I937
sS'PF04367'
p473
I938
sS'PF04360'
p474
I939
sS'PF04361'
p475
I940
sS'PF04362'
p476
I941
sS'PF04363'
p477
I6017
sS'PF09419'
p478
I943
sS'PF09411'
p479
I944
sS'PF09410'
p480
I945
sS'PF09413'
p481
I946
sS'PF00849'
p482
I949
sS'PF00848'
p483
I6039
sS'PF00842'
p484
I956
sS'PF00847'
p485
I957
sS'PF05503'
p486
I6086
sS'PF02249'
p487
I5950
sS'PF05506'
p488
I964
sS'PF05504'
p489
I966
sS'PF01468'
p490
I967
sS'PF09674'
p491
I968
sS'PF09676'
p492
I6114
sS'PF09671'
p493
I971
sS'PF09670'
p494
I972
sS'PF09673'
p495
I973
sS'PF09672'
p496
I6123
sS'PF04101'
p497
I976
sS'PF01462'
p498
I977
sS'PF01463'
p499
I978
sS'PF01464'
p500
I979
sS'PF09678'
p501
I6743
sS'PF01467'
p502
I982
sS'PF00593'
p503
I983
sS'PF02245'
p504
I159
sS'PF00591'
p505
I985
sS'PF00590'
p506
I986
sS'PF00596'
p507
I987
sS'PF00595'
p508
I988
sS'PF00594'
p509
I989
sS'PF00598'
p510
I991
sS'PF11577'
p511
I993
sS'PF08886'
p512
I995
sS'PF02241'
p513
I997
sS'PF08880'
p514
I998
sS'PF07457'
p515
I1030
sS'PF07456'
p516
I1031
sS'PF00335'
p517
I1032
sS'PF07106'
p518
I87
sS'PF00333'
p519
I1034
sS'PF07100'
p520
I1035
sS'PF07103'
p521
I1036
sS'PF07102'
p522
I106
sS'PF07109'
p523
I6444
sS'PF00338'
p524
I1044
sS'PF08104'
p525
I1045
sS'PF08105'
p526
I1046
sS'PF08106'
p527
I1047
sS'PF08107'
p528
I1048
sS'PF08100'
p529
I1049
sS'PF08102'
p530
I1050
sS'PF08103'
p531
I1051
sS'PF08108'
p532
I1054
sS'PF08109'
p533
I1055
sS'PF06850'
p534
I1058
sS'PF06853'
p535
I1059
sS'PF06854'
p536
I1060
sS'PF06855'
p537
I1061
sS'PF06857'
p538
I1062
sS'PF06858'
p539
I1063
sS'PF06859'
p540
I1064
sS'PF01888'
p541
I1079
sS'PF01889'
p542
I6539
sS'PF01882'
p543
I1081
sS'PF01883'
p544
I1082
sS'PF01880'
p545
I1083
sS'PF01881'
p546
I1084
sS'PF01886'
p547
I1085
sS'PF01887'
p548
I1086
sS'PF01884'
p549
I4902
sS'PF01885'
p550
I1088
sS'PF01617'
p551
I6607
sS'PF06274'
p552
I1101
sS'PF06276'
p553
I1102
sS'PF06277'
p554
I1103
sS'PF06270'
p555
I1104
sS'PF06271'
p556
I1105
sS'PF06279'
p557
I1108
sS'PF11814'
p558
I1122
sS'PF10439'
p559
I5938
sS'PF10438'
p560
I1124
sS'PF11812'
p561
I1125
sS'PF10437'
p562
I1126
sS'PF10436'
p563
I1127
sS'PF10431'
p564
I1128
sS'PF10432'
p565
I1130
sS'PF03736'
p566
I1134
sS'PF03737'
p567
I1135
sS'PF03734'
p568
I1136
sS'PF03733'
p569
I139
sS'PF03730'
p570
I141
sS'PF03738'
p571
I1147
sS'PF03739'
p572
I1148
sS'PF03229'
p573
I1149
sS'PF03221'
p574
I1150
sS'PF03222'
p575
I1151
sS'PF03223'
p576
I1152
sS'PF10025'
p577
I1153
sS'PF05770'
p578
I1161
sS'PF05772'
p579
I1162
sS'PF05470'
p580
I1166
sS'PF04303'
p581
I1173
sS'PF11744'
p582
I1174
sS'PF11740'
p583
I404
sS'PF04300'
p584
I1178
sS'PF04301'
p585
I1182
sS'PF04304'
p586
I1189
sS'PF02179'
p587
I499
sS'PF02178'
p588
I1195
sS'PF05194'
p589
I1429
sS'PF05195'
p590
I1197
sS'PF05190'
p591
I1200
sS'PF05191'
p592
I1201
sS'PF05192'
p593
I1202
sS'PF05193'
p594
I1203
sS'PF05198'
p595
I1208
sS'PF05199'
p596
I1209
sS'PF01679'
p597
I1218
sS'PF01678'
p598
I1219
sS'PF04829'
p599
I1220
sS'PF04828'
p600
I1221
sS'PF01674'
p601
I1222
sS'PF01676'
p602
I1223
sS'PF01670'
p603
I1224
sS'PF01672'
p604
I617
sS'PF07650'
p605
I1227
sS'PF09082'
p606
I1228
sS'PF09080'
p607
I1229
sS'PF09081'
p608
I1230
sS'PF09086'
p609
I1231
sS'PF09087'
p610
I1232
sS'PF09084'
p611
I1233
sS'PF05995'
p612
I674
sS'PF05996'
p613
I1242
sS'PF05997'
p614
I677
sS'PF05990'
p615
I1244
sS'PF05991'
p616
I1245
sS'PF05992'
p617
I1246
sS'PF02393'
p618
I2895
sS'PF08308'
p619
I2521
sS'PF07656'
p620
I2522
sS'PF02391'
p621
I184
sS'PF02642'
p622
I1262
sS'PF02645'
p623
I1265
sS'PF10121'
p624
I1267
sS'PF09165'
p625
I1268
sS'PF10125'
p626
I1271
sS'PF01455'
p627
I1272
sS'PF10191'
p628
I894
sS'PF10197'
p629
I1275
sS'PF10199'
p630
I904
sS'PF08713'
p631
I1825
sS'PF07739'
p632
I1280
sS'PF00108'
p633
I1281
sS'PF00109'
p634
I1282
sS'PF07732'
p635
I1284
sS'PF07733'
p636
I1285
sS'PF07730'
p637
I1286
sS'PF00107'
p638
I1287
sS'PF07736'
p639
I1288
sS'PF00101'
p640
I2241
sS'PF00102'
p641
I6695
sS'PF06463'
p642
I1299
sS'PF06462'
p643
I1300
sS'PF06467'
p644
I1303
sS'PF04649'
p645
I1016
sS'PF04648'
p646
I1306
sS'PF04643'
p647
I1421
sS'PF04640'
p648
I1312
sS'PF04647'
p649
I1313
sS'PF04644'
p650
I1314
sS'PF07597'
p651
I1315
sS'PF07594'
p652
I1316
sS'PF07595'
p653
I1317
sS'PF07592'
p654
I1318
sS'PF07593'
p655
I1319
sS'PF10990'
p656
I1322
sS'PF10996'
p657
I1324
sS'PF07599'
p658
I1326
sS'PF07848'
p659
I1327
sS'PF07849'
p660
I1328
sS'PF07840'
p661
I1330
sS'PF07843'
p662
I1331
sS'PF07845'
p663
I1332
sS'PF07846'
p664
I1333
sS'PF03039'
p665
I1338
sS'PF03031'
p666
I1340
sS'PF03030'
p667
I6286
sS'PF03033'
p668
I1342
sS'PF03032'
p669
I1343
sS'PF12451'
p670
I1359
sS'PF12450'
p671
I1425
sS'PF12454'
p672
I1361
sS'PF06645'
p673
I1362
sS'PF06649'
p674
I1372
sS'PF03691'
p675
I1376
sS'PF03690'
p676
I1377
sS'PF03693'
p677
I1378
sS'PF03692'
p678
I1379
sS'PF03695'
p679
I1380
sS'PF03699'
p680
I1381
sS'PF03698'
p681
I1382
sS'PF05731'
p682
I1419
sS'PF02618'
p683
I1596
sS'PF02348'
p684
I1109
sS'PF02349'
p685
I1393
sS'PF02344'
p686
I1396
sS'PF08905'
p687
I1397
sS'PF08906'
p688
I1620
sS'PF08907'
p689
I1399
sS'PF08900'
p690
I1400
sS'PF02341'
p691
I1627
sS'PF08902'
p692
I1402
sS'PF02615'
p693
I1403
sS'PF03969'
p694
I1407
sS'PF03968'
p695
I1408
sS'PF03963'
p696
I1410
sS'PF03962'
p697
I1411
sS'PF03961'
p698
I1412
sS'PF03960'
p699
I1413
sS'PF03967'
p700
I1414
sS'PF03966'
p701
I1415
sS'PF03965'
p702
I1416
sS'PF10602'
p703
I1430
sS'PF10603'
p704
I1431
sS'PF10601'
p705
I1432
sS'PF10606'
p706
I1433
sS'PF10604'
p707
I1434
sS'PF10605'
p708
I1435
sS'PF10609'
p709
I1437
sS'PF00929'
p710
I1440
sS'PF00926'
p711
I1441
sS'PF00927'
p712
I1442
sS'PF00924'
p713
I1443
sS'PF00925'
p714
I1444
sS'PF00922'
p715
I1445
sS'PF00923'
p716
I1446
sS'PF00920'
p717
I1447
sS'PF05698'
p718
I1449
sS'PF01435'
p719
I6617
sS'PF05693'
p720
I1452
sS'PF05343'
p721
I1454
sS'PF05690'
p722
I1455
sS'PF05345'
p723
I1456
sS'PF05344'
p724
I1457
sS'PF05694'
p725
I1458
sS'PF01198'
p726
I1459
sS'PF01199'
p727
I1460
sS'PF09471'
p728
I1461
sS'PF09476'
p729
I1462
sS'PF09475'
p730
I1463
sS'PF09474'
p731
I1464
sS'PF01191'
p732
I2043
sS'PF01192'
p733
I1466
sS'PF01193'
p734
I1467
sS'PF01194'
p735
I1468
sS'PF01195'
p736
I1469
sS'PF01196'
p737
I1470
sS'PF01197'
p738
I1471
sS'PF00823'
p739
I1472
sS'PF00822'
p740
I1473
sS'PF00821'
p741
I1474
sS'PF00827'
p742
I1475
sS'PF00825'
p743
I1476
sS'PF00829'
p744
I1477
sS'PF05525'
p745
I1478
sS'PF05524'
p746
I1479
sS'PF05523'
p747
I1482
sS'PF05529'
p748
I2142
sS'PF09699'
p749
I1491
sS'PF09698'
p750
I1492
sS'PF09697'
p751
I1493
sS'PF09695'
p752
I1494
sS'PF09694'
p753
I1495
sS'PF09693'
p754
I1496
sS'PF09691'
p755
I1498
sS'PF00111'
p756
I1503
sS'PF11550'
p757
I1505
sS'PF11553'
p758
I1506
sS'PF11552'
p759
I1507
sS'PF11556'
p760
I1508
sS'PF04346'
p761
I1511
sS'PF04347'
p762
I1512
sS'PF04344'
p763
I1513
sS'PF04345'
p764
I1514
sS'PF04342'
p765
I1515
sS'PF04343'
p766
I1516
sS'PF04340'
p767
I1517
sS'PF04341'
p768
I1518
sS'PF04348'
p769
I1519
sS'PF04349'
p770
I1520
sS'PF07695'
p771
I1521
sS'PF07694'
p772
I1522
sS'PF07697'
p773
I1523
sS'PF07696'
p774
I1524
sS'PF07691'
p775
I1525
sS'PF07690'
p776
I1526
sS'PF07693'
p777
I1527
sS'PF07699'
p778
I1529
sS'PF07698'
p779
I1530
sS'PF05834'
p780
I1532
sS'PF05833'
p781
I1533
sS'PF05830'
p782
I1534
sS'PF05838'
p783
I1535
sS'PF04122'
p784
I2437
sS'PF01443'
p785
I1000
sS'PF01336'
p786
I1543
sS'PF01337'
p787
I1544
sS'PF01330'
p788
I1545
sS'PF04127'
p789
I4975
sS'PF01445'
p790
I1547
sS'PF04129'
p791
I2474
sS'PF01339'
p792
I1552
sS'PF07471'
p793
I1555
sS'PF07470'
p794
I2480
sS'PF00313'
p795
I1557
sS'PF00312'
p796
I1558
sS'PF07475'
p797
I1559
sS'PF00317'
p798
I1560
sS'PF00316'
p799
I2493
sS'PF00319'
p800
I1562
sS'PF00318'
p801
I1563
sS'PF08128'
p802
I1568
sS'PF11167'
p803
I3689
sS'PF08126'
p804
I2565
sS'PF08124'
p805
I1571
sS'PF08125'
p806
I1572
sS'PF08122'
p807
I2571
sS'PF08123'
p808
I2575
sS'PF08120'
p809
I1575
sS'PF08121'
p810
I2579
sS'PF06870'
p811
I1585
sS'PF06871'
p812
I3541
sS'PF06877'
p813
I1588
sS'PF06874'
p814
I1589
sS'PF00355'
p815
I1608
sS'PF10387'
p816
I75
sS'PF10385'
p817
I2794
sS'PF10381'
p818
I1617
sS'PF10389'
p819
I1621
sS'PF10388'
p820
I1622
sS'PF06258'
p821
I2880
sS'PF06259'
p822
I2882
sS'PF06257'
p823
I1635
sS'PF06252'
p824
I1637
sS'PF06253'
p825
I1638
sS'PF06250'
p826
I1639
sS'PF06251'
p827
I2903
sS'PF09998'
p828
I1644
sS'PF09999'
p829
I1645
sS'PF09990'
p830
I1646
sS'PF09991'
p831
I1647
sS'PF09992'
p832
I1648
sS'PF09994'
p833
I1649
sS'PF09995'
p834
I1650
sS'PF09996'
p835
I1651
sS'PF09997'
p836
I1652
sS'PF11836'
p837
I691
sS'PF11837'
p838
I1655
sS'PF03750'
p839
I1661
sS'PF03203'
p840
I3091
sS'PF03752'
p841
I1663
sS'PF03201'
p842
I1664
sS'PF03206'
p843
I3100
sS'PF03755'
p844
I1666
sS'PF03756'
p845
I1667
sS'PF03205'
p846
I1668
sS'PF03208'
p847
I3122
sS'PF03209'
p848
I1672
sS'PF10517'
p849
I4886
sS'PF05758'
p850
I6353
sS'PF05752'
p851
I1693
sS'PF05751'
p852
I1694
sS'PF05756'
p853
I1695
sS'PF05757'
p854
I1696
sS'PF07435'
p855
I2584
sS'PF10511'
p856
I4890
sS'PF00357'
p857
I1699
sS'PF00356'
p858
I2587
sS'PF00352'
p859
I1701
sS'PF00351'
p860
I1702
sS'PF07430'
p861
I1703
sS'PF07433'
p862
I1704
sS'PF00721'
p863
I1705
sS'PF07432'
p864
I1706
sS'PF00722'
p865
I1707
sS'PF11768'
p866
I1708
sS'PF00891'
p867
I1710
sS'PF05401'
p868
I4457
sS'PF00897'
p869
I2011
sS'PF02151'
p870
I3442
sS'PF02150'
p871
I1730
sS'PF02153'
p872
I1731
sS'PF02152'
p873
I1732
sS'PF02154'
p874
I1733
sS'PF02409'
p875
I1734
sS'PF02156'
p876
I1735
sS'PF02406'
p877
I3463
sS'PF02405'
p878
I3465
sS'PF06435'
p879
I6674
sS'PF02403'
p880
I1739
sS'PF02402'
p881
I1740
sS'PF02401'
p882
I1741
sS'PF11492'
p883
I1742
sS'PF11495'
p884
I6115
sS'PF11497'
p885
I3502
sS'PF11499'
p886
I1747
sS'PF04809'
p887
I3561
sS'PF04800'
p888
I1761
sS'PF04807'
p889
I1762
sS'PF04806'
p890
I1763
sS'PF10017'
p891
I1775
sS'PF10016'
p892
I1776
sS'PF10015'
p893
I1777
sS'PF10014'
p894
I1778
sS'PF10013'
p895
I1779
sS'PF10012'
p896
I1780
sS'PF10011'
p897
I1781
sS'PF10010'
p898
I1782
sS'PF08252'
p899
I1783
sS'PF10019'
p900
I1784
sS'PF08530'
p901
I1785
sS'PF08243'
p902
I2024
sS'PF08714'
p903
I676
sS'PF00126'
p904
I1820
sS'PF00127'
p905
I1821
sS'PF00124'
p906
I1822
sS'PF00125'
p907
I1823
sS'PF00122'
p908
I1824
sS'PF00123'
p909
I3894
sS'PF00120'
p910
I1826
sS'PF00121'
p911
I1827
sS'PF08244'
p912
I2131
sS'PF10170'
p913
I1829
sS'PF00128'
p914
I1830
sS'PF00334'
p915
I1033
sS'PF12404'
p916
I215
sS'PF03364'
p917
I4905
sS'PF04665'
p918
I6301
sS'PF04666'
p919
I1845
sS'PF08255'
p920
I1846
sS'PF04663'
p921
I3962
sS'PF07862'
p922
I1862
sS'PF07863'
p923
I1863
sS'PF08256'
p924
I1864
sS'PF07866'
p925
I1865
sS'PF07867'
p926
I1866
sS'PF07865'
p927
I1867
sS'PF07869'
p928
I1868
sS'PF06406'
p929
I4227
sS'PF06405'
p930
I1883
sS'PF06408'
p931
I1885
sS'PF07314'
p932
I1887
sS'PF07315'
p933
I1888
sS'PF12431'
p934
I1889
sS'PF07317'
p935
I1890
sS'PF07310'
p936
I1891
sS'PF12436'
p937
I4310
sS'PF12435'
p938
I1893
sS'PF12434'
p939
I4313
sS'PF12438'
p940
I4323
sS'PF07318'
p941
I1896
sS'PF07319'
p942
I4330
sS'PF02366'
p943
I1905
sS'PF02367'
p944
I1906
sS'PF08924'
p945
I1907
sS'PF08925'
p946
I1908
sS'PF02362'
p947
I4474
sS'PF12388'
p948
I4475
sS'PF08921'
p949
I4476
sS'PF12386'
p950
I1913
sS'PF02368'
p951
I1914
sS'PF02369'
p952
I1915
sS'PF02091'
p953
I6302
sS'PF02092'
p954
I1930
sS'PF02093'
p955
I1931
sS'PF02095'
p956
I1932
sS'PF02096'
p957
I1933
sS'PF02898'
p958
I1955
sS'PF02899'
p959
I1956
sS'PF02890'
p960
I1957
sS'PF02893'
p961
I1958
sS'PF02894'
p962
I1959
sS'PF02895'
p963
I1960
sS'PF02896'
p964
I1961
sS'PF02897'
p965
I1962
sS'PF00949'
p966
I1964
sS'PF05321'
p967
I1965
sS'PF05325'
p968
I4851
sS'PF05324'
p969
I1967
sS'PF00940'
p970
I1968
sS'PF00941'
p971
I1969
sS'PF00942'
p972
I1970
sS'PF05328'
p973
I1971
sS'PF00947'
p974
I1973
sS'PF03417'
p975
I1974
sS'PF03947'
p976
I1975
sS'PF03946'
p977
I1976
sS'PF03413'
p978
I1977
sS'PF03940'
p979
I4181
sS'PF03411'
p980
I1979
sS'PF03942'
p981
I1980
sS'PF02332'
p982
I6584
sS'PF03949'
p983
I4281
sS'PF03948'
p984
I1986
sS'PF03419'
p985
I6112
sS'PF03418'
p986
I1988
sS'PF09459'
p987
I1989
sS'PF09458'
p988
I1990
sS'PF09327'
p989
I4924
sS'PF09326'
p990
I1992
sS'PF09457'
p991
I1993
sS'PF09456'
p992
I1994
sS'PF09323'
p993
I1995
sS'PF09450'
p994
I1996
sS'PF09321'
p995
I4930
sS'PF00809'
p996
I2000
sS'PF00808'
p997
I2001
sS'PF00805'
p998
I2003
sS'PF00804'
p999
I2004
sS'PF00807'
p1000
I2005
sS'PF00806'
p1001
I2006
sS'PF00801'
p1002
I2007
sS'PF00800'
p1003
I2008
sS'PF00803'
p1004
I2009
sS'PF08854'
p1005
I5781
sS'PF11533'
p1006
I2033
sS'PF04320'
p1007
I2036
sS'PF04321'
p1008
I2037
sS'PF04322'
p1009
I2038
sS'PF04323'
p1010
I2039
sS'PF04324'
p1011
I2040
sS'PF04325'
p1012
I2041
sS'PF04326'
p1013
I2042
sS'PF04327'
p1014
I6589
sS'PF04328'
p1015
I2044
sS'PF04329'
p1016
I2045
sS'PF07679'
p1017
I2049
sS'PF07678'
p1018
I2050
sS'PF07677'
p1019
I2051
sS'PF07676'
p1020
I2052
sS'PF07675'
p1021
I2053
sS'PF07674'
p1022
I2054
sS'PF07673'
p1023
I2055
sS'PF07672'
p1024
I2056
sS'PF07671'
p1025
I2057
sS'PF07670'
p1026
I2058
sS'PF05810'
p1027
I5272
sS'PF05812'
p1028
I2062
sS'PF08328'
p1029
I2063
sS'PF05814'
p1030
I5289
sS'PF08499'
p1031
I2065
sS'PF08496'
p1032
I2066
sS'PF05818'
p1033
I5298
sS'PF08494'
p1034
I2068
sS'PF08327'
p1035
I3305
sS'PF08492'
p1036
I2070
sS'PF08493'
p1037
I2071
sS'PF08491'
p1038
I2047
sS'PF04499'
p1039
I2088
sS'PF01316'
p1040
I2089
sS'PF04493'
p1041
I2090
sS'PF01314'
p1042
I2091
sS'PF01315'
p1043
I2092
sS'PF01312'
p1044
I2093
sS'PF01313'
p1045
I2094
sS'PF01311'
p1046
I2095
sS'PF07419'
p1047
I2098
sS'PF00378'
p1048
I2099
sS'PF07411'
p1049
I2102
sS'PF00370'
p1050
I2103
sS'PF07417'
p1051
I2104
sS'PF00376'
p1052
I2105
sS'PF07415'
p1053
I5411
sS'PF00374'
p1054
I2107
sS'PF08148'
p1055
I2108
sS'PF08850'
p1056
I2109
sS'PF11148'
p1057
I2110
sS'PF11142'
p1058
I5448
sS'PF08141'
p1059
I2113
sS'PF10815'
p1060
I2139
sS'PF06230'
p1061
I2149
sS'PF06233'
p1062
I2150
sS'PF06234'
p1063
I2151
sS'PF06236'
p1064
I2152
sS'PF11852'
p1065
I2156
sS'PF03778'
p1066
I2169
sS'PF03779'
p1067
I2170
sS'PF03772'
p1068
I2172
sS'PF03773'
p1069
I2173
sS'PF03771'
p1070
I2174
sS'PF03776'
p1071
I2175
sS'PF03777'
p1072
I2176
sS'PF03775'
p1073
I2177
sS'PF01954'
p1074
I2181
sS'PF01955'
p1075
I2182
sS'PF01956'
p1076
I2183
sS'PF01957'
p1077
I2184
sS'PF01951'
p1078
I2185
sS'PF01958'
p1079
I2186
sS'PF01959'
p1080
I2187
sS'PF08486'
p1081
I3874
sS'PF11700'
p1082
I2189
sS'PF11703'
p1083
I2190
sS'PF12172'
p1084
I2197
sS'PF12173'
p1085
I6243
sS'PF02138'
p1086
I6279
sS'PF02133'
p1087
I2209
sS'PF02132'
p1088
I2210
sS'PF02423'
p1089
I6294
sS'PF02422'
p1090
I5086
sS'PF02425'
p1091
I2213
sS'PF02136'
p1092
I2214
sS'PF02427'
p1093
I2215
sS'PF02426'
p1094
I2216
sS'PF04860'
p1095
I2229
sS'PF04865'
p1096
I2230
sS'PF08581'
p1097
I4609
sS'PF00272'
p1098
I2239
sS'PF11783'
p1099
I2240
sS'PF07553'
p1100
I2242
sS'PF07550'
p1101
I2244
sS'PF07551'
p1102
I2245
sS'PF07556'
p1103
I2247
sS'PF00274'
p1104
I2250
sS'PF07555'
p1105
I2251
sS'PF07558'
p1106
I2252
sS'PF07908'
p1107
I4969
sS'PF10031'
p1108
I2254
sS'PF10030'
p1109
I2255
sS'PF10035'
p1110
I2256
sS'PF10039'
p1111
I2258
sS'PF10038'
p1112
I2259
sS'PF00625'
p1113
I4970
sS'PF07907'
p1114
I4972
sS'PF01765'
p1115
I2272
sS'PF01764'
p1116
I2273
sS'PF01761'
p1117
I2275
sS'PF01769'
p1118
I2281
sS'PF09154'
p1119
I2283
sS'PF10157'
p1120
I2284
sS'PF09157'
p1121
I2285
sS'PF09150'
p1122
I2286
sS'PF09151'
p1123
I2287
sS'PF10150'
p1124
I2288
sS'PF09153'
p1125
I2289
sS'PF10158'
p1126
I6678
sS'PF00140'
p1127
I2295
sS'PF01208'
p1128
I5702
sS'PF00142'
p1129
I2297
sS'PF00144'
p1130
I2298
sS'PF00145'
p1131
I2299
sS'PF00146'
p1132
I2300
sS'PF01209'
p1133
I5708
sS'PF00148'
p1134
I6745
sS'PF00149'
p1135
I2303
sS'PF05232'
p1136
I2988
sS'PF08799'
p1137
I2307
sS'PF08798'
p1138
I2308
sS'PF08795'
p1139
I2309
sS'PF08797'
p1140
I6744
sS'PF08796'
p1141
I2312
sS'PF08791'
p1142
I6747
sS'PF08790'
p1143
I2314
sS'PF08793'
p1144
I2315
sS'PF08792'
p1145
I2316
sS'PF04689'
p1146
I6763
sS'PF04688'
p1147
I2320
sS'PF04686'
p1148
I5936
sS'PF04685'
p1149
I2323
sS'PF04684'
p1150
I6782
sS'PF04681'
p1151
I6793
sS'PF04680'
p1152
I2328
sS'PF08452'
p1153
I4983
sS'PF01202'
p1154
I5827
sS'PF02446'
p1155
I1923
sS'PF01203'
p1156
I2335
sS'PF07889'
p1157
I25
sS'PF07884'
p1158
I2337
sS'PF07885'
p1159
I2338
sS'PF07886'
p1160
I2339
sS'PF07881'
p1161
I2340
sS'PF07882'
p1162
I2341
sS'PF07883'
p1163
I2342
sS'PF05316'
p1164
I2876
sS'PF05317'
p1165
I2690
sS'PF07085'
p1166
I2347
sS'PF07087'
p1167
I2348
sS'PF07080'
p1168
I2349
sS'PF07081'
p1169
I2350
sS'PF07082'
p1170
I2351
sS'PF07088'
p1171
I2352
sS'PF11284'
p1172
I170
sS'PF11286'
p1173
I2355
sS'PF11283'
p1174
I2356
sS'PF11288'
p1175
I2359
sS'PF04016'
p1176
I2360
sS'PF06429'
p1177
I2362
sS'PF06428'
p1178
I2363
sS'PF06939'
p1179
I2364
sS'PF06938'
p1180
I2365
sS'PF06936'
p1181
I2366
sS'PF06935'
p1182
I2367
sS'PF06934'
p1183
I4136
sS'PF06933'
p1184
I4396
sS'PF06932'
p1185
I2370
sS'PF06930'
p1186
I2372
sS'PF01535'
p1187
I6022
sS'PF04012'
p1188
I4998
sS'PF12419'
p1189
I2383
sS'PF04010'
p1190
I2384
sS'PF07338'
p1191
I2385
sS'PF07336'
p1192
I2386
sS'PF07337'
p1193
I2387
sS'PF04011'
p1194
I5001
sS'PF07332'
p1195
I2390
sS'PF07330'
p1196
I2391
sS'PF07331'
p1197
I2392
sS'PF06689'
p1198
I2402
sS'PF06681'
p1199
I2403
sS'PF06685'
p1200
I2404
sS'PF06684'
p1201
I2405
sS'PF06686'
p1202
I2406
sS'PF08940'
p1203
I2408
sS'PF02302'
p1204
I2409
sS'PF02303'
p1205
I2410
sS'PF08945'
p1206
I2411
sS'PF08946'
p1207
I2412
sS'PF08947'
p1208
I2413
sS'PF02308'
p1209
I2414
sS'PF00962'
p1210
I2432
sS'PF00960'
p1211
I2433
sS'PF00961'
p1212
I2434
sS'PF00969'
p1213
I2435
sS'PF05309'
p1214
I2440
sS'PF05659'
p1215
I2442
sS'PF05658'
p1216
I2443
sS'PF05657'
p1217
I2444
sS'PF05656'
p1218
I2445
sS'PF05655'
p1219
I2446
sS'PF05653'
p1220
I2447
sS'PF05651'
p1221
I2449
sS'PF05650'
p1222
I1678
sS'PF03432'
p1223
I2453
sS'PF03435'
p1224
I2454
sS'PF03437'
p1225
I2455
sS'PF03439'
p1226
I851
sS'PF09301'
p1227
I2463
sS'PF09300'
p1228
I2464
sS'PF09303'
p1229
I2465
sS'PF09305'
p1230
I2467
sS'PF09304'
p1231
I2468
sS'PF09307'
p1232
I2469
sS'PF08898'
p1233
I2476
sS'PF11511'
p1234
I2483
sS'PF11512'
p1235
I1100
sS'PF08896'
p1236
I5378
sS'PF04308'
p1237
I2498
sS'PF04309'
p1238
I2499
sS'PF08894'
p1239
I2500
sS'PF01154'
p1240
I2502
sS'PF01155'
p1241
I2503
sS'PF01156'
p1242
I2504
sS'PF01157'
p1243
I2505
sS'PF04306'
p1244
I2506
sS'PF04307'
p1245
I2507
sS'PF01152'
p1246
I2508
sS'PF04305'
p1247
I2509
sS'PF08306'
p1248
I2417
sS'PF00689'
p1249
I2511
sS'PF08305'
p1250
I2512
sS'PF00682'
p1251
I2516
sS'PF00681'
p1252
I1187
sS'PF07652'
p1253
I2518
sS'PF00687'
p1254
I2519
sS'PF00686'
p1255
I2520
sS'PF00685'
p1256
I1263
sS'PF00684'
p1257
I1258
sS'PF05872'
p1258
I2531
sS'PF02610'
p1259
I1398
sS'PF05876'
p1260
I2534
sS'PF01487'
p1261
I2535
sS'PF01485'
p1262
I2536
sS'PF01483'
p1263
I2537
sS'PF01488'
p1264
I2545
sS'PF01378'
p1265
I2547
sS'PF01379'
p1266
I2548
sS'PF01370'
p1267
I2551
sS'PF01371'
p1268
I2552
sS'PF01372'
p1269
I2553
sS'PF01373'
p1270
I2554
sS'PF01374'
p1271
I1360
sS'PF08166'
p1272
I2559
sS'PF08168'
p1273
I2562
sS'PF02617'
p1274
I2577
sS'PF02614'
p1275
I2580
sS'PF00427'
p1276
I1697
sS'PF00354'
p1277
I2585
sS'PF00425'
p1278
I2586
sS'PF00424'
p1279
I4535
sS'PF07431'
p1280
I2588
sS'PF00350'
p1281
I2589
sS'PF00353'
p1282
I2590
sS'PF00420'
p1283
I2591
sS'PF10831'
p1284
I1709
sS'PF10832'
p1285
I5020
sS'PF00359'
p1286
I2596
sS'PF00358'
p1287
I2597
sS'PF00428'
p1288
I2599
sS'PF06744'
p1289
I2600
sS'PF06745'
p1290
I2601
sS'PF06210'
p1291
I2602
sS'PF06747'
p1292
I2603
sS'PF06740'
p1293
I2604
sS'PF06742'
p1294
I2605
sS'PF06743'
p1295
I2606
sS'PF06219'
p1296
I2607
sS'PF06748'
p1297
I2608
sS'PF00005'
p1298
I5022
sS'PF09958'
p1299
I2616
sS'PF09959'
p1300
I1861
sS'PF00004'
p1301
I5023
sS'PF09954'
p1302
I2620
sS'PF09955'
p1303
I2621
sS'PF09956'
p1304
I2622
sS'PF09957'
p1305
I2623
sS'PF09950'
p1306
I2624
sS'PF09951'
p1307
I2625
sS'PF09952'
p1308
I1872
sS'PF09953'
p1309
I2627
sS'PF00554'
p1310
I2573
sS'PF07057'
p1311
I2629
sS'PF00551'
p1312
I5027
sS'PF00550'
p1313
I5028
sS'PF01978'
p1314
I2647
sS'PF01979'
p1315
I2648
sS'PF01976'
p1316
I2649
sS'PF01977'
p1317
I2650
sS'PF01974'
p1318
I2651
sS'PF01975'
p1319
I2652
sS'PF01972'
p1320
I2653
sS'PF01973'
p1321
I2654
sS'PF01970'
p1322
I2655
sS'PF11873'
p1323
I2656
sS'PF11871'
p1324
I2657
sS'PF11877'
p1325
I2658
sS'PF11728'
p1326
I2225
sS'PF11723'
p1327
I2246
sS'PF11727'
p1328
I2674
sS'PF04993'
p1329
I2675
sS'PF04991'
p1330
I2679
sS'PF02441'
p1331
I2681
sS'PF02447'
p1332
I2682
sS'PF02110'
p1333
I2333
sS'PF02113'
p1334
I2336
sS'PF02112'
p1335
I2685
sS'PF01165'
p1336
I2748
sS'PF02449'
p1337
I2687
sS'PF02448'
p1338
I2344
sS'PF02119'
p1339
I2689
sS'PF12191'
p1340
I1337
sS'PF04995'
p1341
I2694
sS'PF04994'
p1342
I3456
sS'PF08373'
p1343
I2636
sS'PF04844'
p1344
I2705
sS'PF04846'
p1345
I2706
sS'PF04841'
p1346
I2707
sS'PF10581'
p1347
I2709
sS'PF10580'
p1348
I2710
sS'PF10584'
p1349
I2711
sS'PF10587'
p1350
I2712
sS'PF10589'
p1351
I2713
sS'PF10588'
p1352
I2714
sS'PF04518'
p1353
I2715
sS'PF08379'
p1354
I2717
sS'PF03259'
p1355
I2720
sS'PF09791'
p1356
I2721
sS'PF09797'
p1357
I2722
sS'PF09799'
p1358
I3631
sS'PF10059'
p1359
I2728
sS'PF10053'
p1360
I2730
sS'PF10052'
p1361
I2643
sS'PF10051'
p1362
I2732
sS'PF10050'
p1363
I2733
sS'PF10057'
p1364
I2734
sS'PF10055'
p1365
I2735
sS'PF10054'
p1366
I2736
sS'PF05465'
p1367
I2738
sS'PF05461'
p1368
I2660
sS'PF05463'
p1369
I2743
sS'PF05468'
p1370
I2686
sS'PF01741'
p1371
I2701
sS'PF01740'
p1372
I2753
sS'PF01743'
p1373
I2754
sS'PF01745'
p1374
I2755
sS'PF01744'
p1375
I2756
sS'PF01747'
p1376
I1099
sS'PF01746'
p1377
I2758
sS'PF04517'
p1378
I2716
sS'PF10137'
p1379
I3540
sS'PF04513'
p1380
I2718
sS'PF10130'
p1381
I2767
sS'PF10131'
p1382
I2729
sS'PF10132'
p1383
I2769
sS'PF10133'
p1384
I2770
sS'PF10134'
p1385
I2771
sS'PF10135'
p1386
I2772
sS'PF10136'
p1387
I3534
sS'PF09179'
p1388
I2774
sS'PF10138'
p1389
I2775
sS'PF09177'
p1390
I2776
sS'PF09173'
p1391
I2779
sS'PF09171'
p1392
I2799
sS'PF00169'
p1393
I2808
sS'PF00162'
p1394
I2789
sS'PF00163'
p1395
I2790
sS'PF00160'
p1396
I2791
sS'PF00166'
p1397
I2793
sS'PF00164'
p1398
I2795
sS'PF00165'
p1399
I2796
sS'PF01345'
p1400
I2801
sS'PF04192'
p1401
I3455
sS'PF04195'
p1402
I2811
sS'PF11268'
p1403
I2834
sS'PF06912'
p1404
I3202
sS'PF06914'
p1405
I2847
sS'PF06917'
p1406
I2848
sS'PF07358'
p1407
I2857
sS'PF07350'
p1408
I2858
sS'PF07351'
p1409
I2859
sS'PF07352'
p1410
I2860
sS'PF07355'
p1411
I2861
sS'PF07356'
p1412
I2862
sS'PF07357'
p1413
I2863
sS'PF02329'
p1414
I2886
sS'PF02322'
p1415
I2887
sS'PF02321'
p1416
I2889
sS'PF02326'
p1417
I2890
sS'PF08967'
p1418
I2891
sS'PF02324'
p1419
I2892
sS'PF02325'
p1420
I2893
sS'PF05314'
p1421
I2691
sS'PF06007'
p1422
I2905
sS'PF06005'
p1423
I2906
sS'PF06004'
p1424
I2907
sS'PF06002'
p1425
I2908
sS'PF06009'
p1426
I2909
sS'PF03180'
p1427
I2920
sS'PF03183'
p1428
I2921
sS'PF03184'
p1429
I2923
sS'PF03186'
p1430
I2924
sS'PF03189'
p1431
I2925
sS'PF03636'
p1432
I2926
sS'PF03633'
p1433
I2927
sS'PF03632'
p1434
I2928
sS'PF03631'
p1435
I2929
sS'PF03630'
p1436
I2930
sS'PF02588'
p1437
I2935
sS'PF02589'
p1438
I2936
sS'PF02586'
p1439
I2937
sS'PF02585'
p1440
I2938
sS'PF02582'
p1441
I2939
sS'PF02583'
p1442
I2940
sS'PF02580'
p1443
I3713
sS'PF02581'
p1444
I2942
sS'PF00988'
p1445
I2945
sS'PF00989'
p1446
I2946
sS'PF00984'
p1447
I2948
sS'PF00986'
p1448
I2949
sS'PF00982'
p1449
I2950
sS'PF05678'
p1450
I2952
sS'PF05671'
p1451
I2958
sS'PF05670'
p1452
I2959
sS'PF05673'
p1453
I6368
sS'PF05675'
p1454
I2961
sS'PF03989'
p1455
I2963
sS'PF03988'
p1456
I2964
sS'PF03459'
p1457
I2965
sS'PF03458'
p1458
I2966
sS'PF03453'
p1459
I2967
sS'PF03452'
p1460
I2968
sS'PF03450'
p1461
I2969
sS'PF03457'
p1462
I2970
sS'PF03984'
p1463
I2971
sS'PF03454'
p1464
I2972
sS'PF05582'
p1465
I2974
sS'PF05580'
p1466
I2975
sS'PF05584'
p1467
I2977
sS'PF05589'
p1468
I2979
sS'PF12037'
p1469
I2987
sS'PF12036'
p1470
I3964
sS'PF12035'
p1471
I2989
sS'PF01176'
p1472
I2990
sS'PF01177'
p1473
I2991
sS'PF01174'
p1474
I2992
sS'PF01175'
p1475
I2993
sS'PF01172'
p1476
I2994
sS'PF01170'
p1477
I2995
sS'PF01171'
p1478
I2996
sS'PF01179'
p1479
I338
sS'PF09363'
p1480
I3004
sS'PF09362'
p1481
I4115
sS'PF09361'
p1482
I3006
sS'PF09360'
p1483
I3007
sS'PF09367'
p1484
I3008
sS'PF09366'
p1485
I3009
sS'PF09365'
p1486
I3010
sS'PF09364'
p1487
I3011
sS'PF04981'
p1488
I3013
sS'PF09369'
p1489
I456
sS'PF04983'
p1490
I3015
sS'PF04984'
p1491
I3155
sS'PF04985'
p1492
I3017
sS'PF04986'
p1493
I4144
sS'PF08360'
p1494
I4146
sS'PF08361'
p1495
I3021
sS'PF05857'
p1496
I4148
sS'PF08364'
p1497
I1935
sS'PF08365'
p1498
I4156
sS'PF05853'
p1499
I4157
sS'PF05852'
p1500
I4158
sS'PF08369'
p1501
I2015
sS'PF05859'
p1502
I4179
sS'PF01352'
p1503
I3045
sS'PF04182'
p1504
I3046
sS'PF01351'
p1505
I3047
sS'PF04185'
p1506
I3049
sS'PF04186'
p1507
I3050
sS'PF01355'
p1508
I4246
sS'PF04188'
p1509
I3052
sS'PF04189'
p1510
I3053
sS'PF08188'
p1511
I3058
sS'PF08189'
p1512
I3059
sS'PF08185'
p1513
I4334
sS'PF08186'
p1514
I3061
sS'PF08187'
p1515
I3062
sS'PF08180'
p1516
I3063
sS'PF08181'
p1517
I3064
sS'PF08182'
p1518
I3065
sS'PF08183'
p1519
I3066
sS'PF09587'
p1520
I3068
sS'PF09586'
p1521
I3069
sS'PF09585'
p1522
I3070
sS'PF09584'
p1523
I3071
sS'PF09583'
p1524
I3072
sS'PF09582'
p1525
I3073
sS'PF09581'
p1526
I3074
sS'PF09580'
p1527
I3075
sS'PF09588'
p1528
I3077
sS'PF07631'
p1529
I4441
sS'PF07981'
p1530
I3079
sS'PF07636'
p1531
I306
sS'PF07635'
p1532
I3081
sS'PF07634'
p1533
I4455
sS'PF07638'
p1534
I3083
sS'PF07988'
p1535
I3084
sS'PF06582'
p1536
I3085
sS'PF06580'
p1537
I3087
sS'PF06586'
p1538
I3089
sS'PF06587'
p1539
I3090
sS'PF06589'
p1540
I3093
sS'PF00547'
p1541
I195
sS'PF04725'
p1542
I3094
sS'PF04726'
p1543
I3095
sS'PF04722'
p1544
I3098
sS'PF04723'
p1545
I3099
sS'PF04728'
p1546
I3102
sS'PF10851'
p1547
I4556
sS'PF10850'
p1548
I3105
sS'PF10856'
p1549
I3107
sS'PF10855'
p1550
I1912
sS'PF00401'
p1551
I3111
sS'PF00400'
p1552
I3112
sS'PF00403'
p1553
I3113
sS'PF00402'
p1554
I3114
sS'PF00404'
p1555
I3115
sS'PF00407'
p1556
I3116
sS'PF00406'
p1557
I3117
sS'PF07185'
p1558
I3118
sS'PF00408'
p1559
I3119
sS'PF07187'
p1560
I3120
sS'PF07186'
p1561
I3121
sS'PF07183'
p1562
I3123
sS'PF06769'
p1563
I3129
sS'PF06764'
p1564
I3130
sS'PF06763'
p1565
I3132
sS'PF06761'
p1566
I3133
sS'PF09976'
p1567
I3134
sS'PF09977'
p1568
I3135
sS'PF09974'
p1569
I3136
sS'PF09975'
p1570
I3137
sS'PF09972'
p1571
I3138
sS'PF09973'
p1572
I3139
sS'PF09970'
p1573
I3140
sS'PF09978'
p1574
I3141
sS'PF09979'
p1575
I3142
sS'PF02289'
p1576
I4350
sS'PF07424'
p1577
I3152
sS'PF11094'
p1578
I4919
sS'PF11095'
p1579
I3157
sS'PF09436'
p1580
I3234
sS'PF01918'
p1581
I3164
sS'PF00343'
p1582
I2836
sS'PF01910'
p1583
I3166
sS'PF01911'
p1584
I3167
sS'PF01912'
p1585
I3168
sS'PF01913'
p1586
I3169
sS'PF12200'
p1587
I5076
sS'PF01915'
p1588
I3171
sS'PF01916'
p1589
I3172
sS'PF01917'
p1590
I3173
sS'PF11898'
p1591
I3174
sS'PF00430'
p1592
I3176
sS'PF11897'
p1593
I3178
sS'PF10569'
p1594
I5114
sS'PF00347'
p1595
I1384
sS'PF03845'
p1596
I5111
sS'PF03846'
p1597
I3184
sS'PF03840'
p1598
I3185
sS'PF03841'
p1599
I4207
sS'PF03842'
p1600
I3187
sS'PF03843'
p1601
I3188
sS'PF07425'
p1602
I3192
sS'PF03848'
p1603
I5142
sS'PF07428'
p1604
I3200
sS'PF00349'
p1605
I2845
sS'PF02469'
p1606
I3775
sS'PF02468'
p1607
I2462
sS'PF02465'
p1608
I3207
sS'PF02464'
p1609
I3208
sS'PF02467'
p1610
I3209
sS'PF02461'
p1611
I3210
sS'PF02460'
p1612
I5254
sS'PF02463'
p1613
I3212
sS'PF08213'
p1614
I3223
sS'PF00862'
p1615
I3224
sS'PF00860'
p1616
I3235
sS'PF08807'
p1617
I5123
sS'PF08522'
p1618
I3241
sS'PF10077'
p1619
I3242
sS'PF10076'
p1620
I3243
sS'PF10071'
p1621
I3244
sS'PF10070'
p1622
I3245
sS'PF10073'
p1623
I3246
sS'PF10072'
p1624
I3247
sS'PF02577'
p1625
I5125
sS'PF10079'
p1626
I3249
sS'PF10078'
p1627
I3250
sS'PF08800'
p1628
I3251
sS'PF08803'
p1629
I901
sS'PF02574'
p1630
I5128
sS'PF05118'
p1631
I3260
sS'PF05119'
p1632
I5569
sS'PF05448'
p1633
I5570
sS'PF05449'
p1634
I5571
sS'PF05114'
p1635
I4311
sS'PF05115'
p1636
I3265
sS'PF05116'
p1637
I3266
sS'PF05445'
p1638
I3267
sS'PF05110'
p1639
I3268
sS'PF05443'
p1640
I3269
sS'PF05440'
p1641
I5586
sS'PF04539'
p1642
I3271
sS'PF05965'
p1643
I3272
sS'PF01729'
p1644
I3273
sS'PF01728'
p1645
I3274
sS'PF04531'
p1646
I3278
sS'PF01722'
p1647
I3279
sS'PF01726'
p1648
I3283
sS'PF01725'
p1649
I5632
sS'PF04536'
p1650
I3285
sS'PF09118'
p1651
I3286
sS'PF10118'
p1652
I3287
sS'PF10119'
p1653
I3288
sS'PF10112'
p1654
I3289
sS'PF08254'
p1655
I3290
sS'PF10110'
p1656
I3291
sS'PF10111'
p1657
I3292
sS'PF10116'
p1658
I3293
sS'PF10117'
p1659
I3294
sS'PF10114'
p1660
I3295
sS'PF05960'
p1661
I3296
sS'PF01408'
p1662
I3298
sS'PF08257'
p1663
I3299
sS'PF04166'
p1664
I3301
sS'PF01405'
p1665
I3304
sS'PF11304'
p1666
I5825
sS'PF11306'
p1667
I3308
sS'PF11300'
p1668
I3310
sS'PF11309'
p1669
I2800
sS'PF08647'
p1670
I2388
sS'PF08646'
p1671
I3332
sS'PF08645'
p1672
I5947
sS'PF08643'
p1673
I5955
sS'PF08642'
p1674
I3335
sS'PF08641'
p1675
I5967
sS'PF06973'
p1676
I3338
sS'PF06971'
p1677
I3340
sS'PF06970'
p1678
I3341
sS'PF06977'
p1679
I3342
sS'PF06975'
p1680
I3344
sS'PF11241'
p1681
I3345
sS'PF11240'
p1682
I3346
sS'PF06978'
p1683
I3347
sS'PF10250'
p1684
I3348
sS'PF07372'
p1685
I3360
sS'PF07370'
p1686
I6068
sS'PF07371'
p1687
I6069
sS'PF07377'
p1688
I3363
sS'PF07374'
p1689
I3364
sS'PF07378'
p1690
I3367
sS'PF07379'
p1691
I6085
sS'PF06397'
p1692
I3386
sS'PF06394'
p1693
I3387
sS'PF06392'
p1694
I3388
sS'PF06399'
p1695
I3392
sS'PF11932'
p1696
I6354
sS'PF11930'
p1697
I3401
sS'PF06023'
p1698
I6372
sS'PF06025'
p1699
I3680
sS'PF06024'
p1700
I4931
sS'PF06027'
p1701
I3221
sS'PF06026'
p1702
I3410
sS'PF06029'
p1703
I3411
sS'PF06028'
p1704
I3412
sS'PF03618'
p1705
I3417
sS'PF03611'
p1706
I3419
sS'PF03610'
p1707
I3420
sS'PF03613'
p1708
I3421
sS'PF03612'
p1709
I3422
sS'PF03617'
p1710
I3423
sS'PF03616'
p1711
I3424
sS'PF10688'
p1712
I6498
sS'PF10689'
p1713
I6502
sS'PF10686'
p1714
I3431
sS'PF10687'
p1715
I3432
sS'PF10685'
p1716
I3433
sS'PF08962'
p1717
I3434
sS'PF05610'
p1718
I3435
sS'PF05616'
p1719
I3436
sS'PF05615'
p1720
I3437
sS'PF05618'
p1721
I3439
sS'PF03475'
p1722
I3441
sS'PF03474'
p1723
I6560
sS'PF03477'
p1724
I3443
sS'PF03476'
p1725
I3444
sS'PF03471'
p1726
I3445
sS'PF03470'
p1727
I3446
sS'PF03473'
p1728
I3447
sS'PF03472'
p1729
I3448
sS'PF03479'
p1730
I3451
sS'PF03478'
p1731
I3452
sS'PF02327'
p1732
I3454
sS'PF08964'
p1733
I3457
sS'PF02876'
p1734
I3470
sS'PF02874'
p1735
I3471
sS'PF02875'
p1736
I3472
sS'PF02872'
p1737
I3473
sS'PF02873'
p1738
I3474
sS'PF02870'
p1739
I3475
sS'PF12019'
p1740
I3476
sS'PF02878'
p1741
I3477
sS'PF02879'
p1742
I3478
sS'PF01112'
p1743
I3495
sS'PF01113'
p1744
I3496
sS'PF01114'
p1745
I3497
sS'PF01116'
p1746
I3498
sS'PF01117'
p1747
I3499
sS'PF01118'
p1748
I3500
sS'PF01119'
p1749
I3501
sS'PF02705'
p1750
I3503
sS'PF02706'
p1751
I3504
sS'PF09349'
p1752
I117
sS'PF02701'
p1753
I122
sS'PF02702'
p1754
I3507
sS'PF09345'
p1755
I136
sS'PF09344'
p1756
I3509
sS'PF09347'
p1757
I3510
sS'PF09346'
p1758
I3511
sS'PF02709'
p1759
I147
sS'PF09343'
p1760
I149
sS'PF08348'
p1761
I3517
sS'PF08349'
p1762
I3518
sS'PF08438'
p1763
I160
sS'PF08439'
p1764
I3520
sS'PF08342'
p1765
I167
sS'PF08343'
p1766
I3524
sS'PF08340'
p1767
I169
sS'PF08437'
p1768
I3526
sS'PF08346'
p1769
I171
sS'PF08347'
p1770
I3528
sS'PF08432'
p1771
I3529
sS'PF08433'
p1772
I173
sS'PF07619'
p1773
I3550
sS'PF07618'
p1774
I3551
sS'PF07969'
p1775
I3552
sS'PF07968'
p1776
I429
sS'PF07615'
p1777
I3554
sS'PF07966'
p1778
I433
sS'PF07617'
p1779
I3556
sS'PF07611'
p1780
I437
sS'PF00642'
p1781
I441
sS'PF07613'
p1782
I444
sS'PF10139'
p1783
I6478
sS'PF06568'
p1784
I3562
sS'PF06569'
p1785
I3563
sS'PF06564'
p1786
I3566
sS'PF06565'
p1787
I3567
sS'PF06560'
p1788
I3568
sS'PF06561'
p1789
I3569
sS'PF04704'
p1790
I3575
sS'PF04705'
p1791
I3576
sS'PF04703'
p1792
I531
sS'PF10306'
p1793
I4798
sS'PF10304'
p1794
I3588
sS'PF10873'
p1795
I3589
sS'PF00399'
p1796
I3590
sS'PF00398'
p1797
I3591
sS'PF00468'
p1798
I3592
sS'PF00391'
p1799
I3593
sS'PF00390'
p1800
I621
sS'PF00393'
p1801
I3595
sS'PF00460'
p1802
I609
sS'PF00467'
p1803
I610
sS'PF00394'
p1804
I611
sS'PF00465'
p1805
I612
sS'PF00464'
p1806
I3600
sS'PF06706'
p1807
I3607
sS'PF06707'
p1808
I3608
sS'PF09910'
p1809
I3609
sS'PF09911'
p1810
I3610
sS'PF09912'
p1811
I3611
sS'PF09913'
p1812
I3612
sS'PF09914'
p1813
I3613
sS'PF09915'
p1814
I3614
sS'PF09916'
p1815
I3615
sS'PF09917'
p1816
I3616
sS'PF09918'
p1817
I3617
sS'PF09919'
p1818
I3618
sS'PF01058'
p1819
I5168
sS'PF03288'
p1820
I812
sS'PF03280'
p1821
I3625
sS'PF03284'
p1822
I3627
sS'PF01057'
p1823
I3629
sS'PF01902'
p1824
I2913
sS'PF12226'
p1825
I3635
sS'PF01933'
p1826
I3636
sS'PF01930'
p1827
I3637
sS'PF01931'
p1828
I3638
sS'PF12222'
p1829
I857
sS'PF01937'
p1830
I3640
sS'PF01934'
p1831
I3641
sS'PF01935'
p1832
I3642
sS'PF01938'
p1833
I3645
sS'PF01939'
p1834
I926
sS'PF12229'
p1835
I1002
sS'PF03868'
p1836
I3663
sS'PF03869'
p1837
I3664
sS'PF03864'
p1838
I3665
sS'PF03865'
p1839
I3666
sS'PF03862'
p1840
I3667
sS'PF03860'
p1841
I3668
sS'PF03861'
p1842
I3669
sS'PF09515'
p1843
I3684
sS'PF09517'
p1844
I5198
sS'PF09512'
p1845
I2883
sS'PF09756'
p1846
I3705
sS'PF09754'
p1847
I3707
sS'PF09752'
p1848
I3708
sS'PF07837'
p1849
I585
sS'PF07836'
p1850
I586
sS'PF09289'
p1851
I3712
sS'PF02852'
p1852
I2941
sS'PF10099'
p1853
I3714
sS'PF10098'
p1854
I3715
sS'PF09280'
p1855
I1500
sS'PF10096'
p1856
I3717
sS'PF10095'
p1857
I1504
sS'PF10094'
p1858
I3719
sS'PF10093'
p1859
I3720
sS'PF10092'
p1860
I1510
sS'PF10091'
p1861
I396
sS'PF10090'
p1862
I3723
sS'PF05136'
p1863
I3724
sS'PF05137'
p1864
I3725
sS'PF05134'
p1865
I3726
sS'PF05135'
p1866
I3727
sS'PF05130'
p1867
I3729
sS'PF05138'
p1868
I3737
sS'PF05139'
p1869
I3738
sS'PF07913'
p1870
I5211
sS'PF05420'
p1871
I6032
sS'PF05421'
p1872
I3747
sS'PF05423'
p1873
I3749
sS'PF05425'
p1874
I3751
sS'PF05426'
p1875
I3752
sS'PF09132'
p1876
I3754
sS'PF09130'
p1877
I3755
sS'PF09131'
p1878
I3756
sS'PF09136'
p1879
I3757
sS'PF09137'
p1880
I3758
sS'PF09134'
p1881
I3759
sS'PF00636'
p1882
I3762
sS'PF09138'
p1883
I3763
sS'PF00634'
p1884
I5215
sS'PF08085'
p1885
I3777
sS'PF08087'
p1886
I3779
sS'PF08086'
p1887
I3780
sS'PF08081'
p1888
I3781
sS'PF08080'
p1889
I3782
sS'PF08088'
p1890
I3783
sS'PF02104'
p1891
I2956
sS'PF01257'
p1892
I3785
sS'PF04552'
p1893
I1916
sS'PF04551'
p1894
I1919
sS'PF04550'
p1895
I1922
sS'PF01253'
p1896
I1924
sS'PF01252'
p1897
I3790
sS'PF01250'
p1898
I3791
sS'PF01709'
p1899
I3796
sS'PF01259'
p1900
I3798
sS'PF01258'
p1901
I3799
sS'PF00075'
p1902
I3801
sS'PF00076'
p1903
I3802
sS'PF00077'
p1904
I3803
sS'PF00070'
p1905
I3804
sS'PF00071'
p1906
I3805
sS'PF00072'
p1907
I3806
sS'PF00078'
p1908
I3809
sS'PF00079'
p1909
I3810
sS'PF11222'
p1910
I2012
sS'PF08663'
p1911
I3814
sS'PF04068'
p1912
I3815
sS'PF08665'
p1913
I3816
sS'PF08664'
p1914
I3817
sS'PF08667'
p1915
I3818
sS'PF08666'
p1916
I3819
sS'PF08669'
p1917
I3820
sS'PF08668'
p1918
I3821
sS'PF06956'
p1919
I3832
sS'PF06953'
p1920
I2111
sS'PF04791'
p1921
I5550
sS'PF04792'
p1922
I5236
sS'PF07398'
p1923
I3848
sS'PF07399'
p1924
I3849
sS'PF07394'
p1925
I3850
sS'PF04795'
p1926
I3851
sS'PF07396'
p1927
I3852
sS'PF07397'
p1928
I3853
sS'PF07391'
p1929
I3854
sS'PF07392'
p1930
I3855
sS'PF01546'
p1931
I5238
sS'PF04796'
p1932
I5629
sS'PF07806'
p1933
I3870
sS'PF10375'
p1934
I3883
sS'PF11915'
p1935
I3887
sS'PF11919'
p1936
I3888
sS'PF03952'
p1937
I6272
sS'PF06049'
p1938
I3889
sS'PF06048'
p1939
I3890
sS'PF06042'
p1940
I3892
sS'PF06041'
p1941
I3893
sS'PF03673'
p1942
I3895
sS'PF03672'
p1943
I3896
sS'PF03671'
p1944
I3897
sS'PF03677'
p1945
I3898
sS'PF03675'
p1946
I3899
sS'PF03953'
p1947
I6275
sS'PF05639'
p1948
I3908
sS'PF05638'
p1949
I3909
sS'PF05635'
p1950
I3910
sS'PF05636'
p1951
I3911
sS'PF05631'
p1952
I3912
sS'PF05630'
p1953
I3913
sS'PF03498'
p1954
I3915
sS'PF03496'
p1955
I3916
sS'PF03494'
p1956
I3917
sS'PF03491'
p1957
I3918
sS'PF03490'
p1958
I3919
sS'PF08874'
p1959
I2894
sS'PF02811'
p1960
I3927
sS'PF08876'
p1961
I2896
sS'PF08877'
p1962
I3929
sS'PF08870'
p1963
I2902
sS'PF08871'
p1964
I3931
sS'PF08872'
p1965
I3932
sS'PF08873'
p1966
I2904
sS'PF02818'
p1967
I3934
sS'PF12072'
p1968
I3935
sS'PF12071'
p1969
I3936
sS'PF08878'
p1970
I3937
sS'PF12076'
p1971
I3938
sS'PF05090'
p1972
I4795
sS'PF05092'
p1973
I2944
sS'PF05095'
p1974
I3943
sS'PF05096'
p1975
I3945
sS'PF05099'
p1976
I3946
sS'PF01138'
p1977
I3959
sS'PF02517'
p1978
I4662
sS'PF04949'
p1979
I3146
sS'PF01132'
p1980
I3965
sS'PF04945'
p1981
I3966
sS'PF01131'
p1982
I3967
sS'PF04940'
p1983
I2416
sS'PF01137'
p1984
I3969
sS'PF01134'
p1985
I3067
sS'PF01135'
p1986
I3971
sS'PF02728'
p1987
I3973
sS'PF02729'
p1988
I3974
sS'PF02727'
p1989
I3975
sS'PF02724'
p1990
I3976
sS'PF02720'
p1991
I3977
sS'PF02721'
p1992
I682
sS'PF05899'
p1993
I3979
sS'PF05891'
p1994
I3981
sS'PF05893'
p1995
I3983
sS'PF05896'
p1996
I3984
sS'PF01396'
p1997
I3985
sS'PF01394'
p1998
I3986
sS'PF01391'
p1999
I3988
sS'PF01398'
p2000
I3989
sS'PF07949'
p2001
I4007
sS'PF00668'
p2002
I4008
sS'PF08415'
p2003
I4010
sS'PF08413'
p2004
I4012
sS'PF08410'
p2005
I3400
sS'PF08411'
p2006
I994
sS'PF07941'
p2007
I4015
sS'PF07940'
p2008
I4016
sS'PF07943'
p2009
I4017
sS'PF07942'
p2010
I3414
sS'PF00665'
p2011
I705
sS'PF07944'
p2012
I3416
sS'PF07947'
p2013
I3418
sS'PF04768'
p2014
I4032
sS'PF04760'
p2015
I4037
sS'PF04761'
p2016
I4038
sS'PF04763'
p2017
I4040
sS'PF00445'
p2018
I4044
sS'PF07492'
p2019
I4045
sS'PF00446'
p2020
I3531
sS'PF07497'
p2021
I3532
sS'PF00440'
p2022
I4049
sS'PF07495'
p2023
I4050
sS'PF07494'
p2024
I4051
sS'PF07499'
p2025
I3537
sS'PF07498'
p2026
I4055
sS'PF00449'
p2027
I4056
sS'PF00448'
p2028
I3542
sS'PF09938'
p2029
I4060
sS'PF09939'
p2030
I4061
sS'PF09932'
p2031
I4064
sS'PF09933'
p2032
I4065
sS'PF09930'
p2033
I4066
sS'PF09931'
p2034
I4067
sS'PF09936'
p2035
I4068
sS'PF09937'
p2036
I4069
sS'PF09934'
p2037
I4070
sS'PF00544'
p2038
I4071
sS'PF00545'
p2039
I4072
sS'PF00010'
p2040
I4073
sS'PF06545'
p2041
I844
sS'PF06543'
p2042
I4075
sS'PF06541'
p2043
I4076
sS'PF07044'
p2044
I4077
sS'PF06548'
p2045
I4079
sS'PF06549'
p2046
I4080
sS'PF07046'
p2047
I4083
sS'PF00543'
p2048
I5282
sS'PF07237'
p2049
I4086
sS'PF07235'
p2050
I4087
sS'PF07233'
p2051
I4089
sS'PF07238'
p2052
I4090
sS'PF06722'
p2053
I4093
sS'PF06723'
p2054
I4094
sS'PF06727'
p2055
I4095
sS'PF06724'
p2056
I4096
sS'PF06725'
p2057
I4097
sS'PF06728'
p2058
I4099
sS'PF12241'
p2059
I3925
sS'PF12242'
p2060
I4103
sS'PF12244'
p2061
I4104
sS'PF12249'
p2062
I3951
sS'PF04989'
p2063
I3005
sS'PF03808'
p2064
I4119
sS'PF05109'
p2065
I2642
sS'PF03802'
p2066
I4122
sS'PF03804'
p2067
I4124
sS'PF03806'
p2068
I4125
sS'PF03807'
p2069
I4126
sS'PF04982'
p2070
I4132
sS'PF05855'
p2071
I3020
sS'PF05854'
p2072
I4147
sS'PF08362'
p2073
I3022
sS'PF10529'
p2074
I4149
sS'PF10527'
p2075
I4150
sS'PF10526'
p2076
I4297
sS'PF10525'
p2077
I4152
sS'PF10524'
p2078
I4153
sS'PF10523'
p2079
I4154
sS'PF10522'
p2080
I4155
sS'PF10520'
p2081
I4292
sS'PF08367'
p2082
I3026
sS'PF04505'
p2083
I6063
sS'PF09731'
p2084
I4368
sS'PF01755'
p2085
I3030
sS'PF09736'
p2086
I1537
sS'PF09737'
p2087
I4382
sS'PF03246'
p2088
I4182
sS'PF01750'
p2089
I3033
sS'PF05402'
p2090
I4184
sS'PF05151'
p2091
I4185
sS'PF05400'
p2092
I4186
sS'PF03245'
p2093
I2439
sS'PF05154'
p2094
I4188
sS'PF05155'
p2095
I4189
sS'PF05405'
p2096
I4466
sS'PF05159'
p2097
I4192
sS'PF03243'
p2098
I4196
sS'PF03241'
p2099
I4201
sS'PF10106'
p2100
I3040
sS'PF11699'
p2101
I4626
sS'PF10101'
p2102
I4217
sS'PF11694'
p2103
I4218
sS'PF11695'
p2104
I4219
sS'PF10100'
p2105
I4220
sS'PF01095'
p2106
I4221
sS'PF01094'
p2107
I4222
sS'PF01096'
p2108
I4223
sS'PF01090'
p2109
I4224
sS'PF01092'
p2110
I4225
sS'PF01098'
p2111
I4226
sS'PF04183'
p2112
I3220
sS'PF08069'
p2113
I4230
sS'PF08068'
p2114
I4231
sS'PF08067'
p2115
I4232
sS'PF08066'
p2116
I5855
sS'PF08062'
p2117
I4236
sS'PF08061'
p2118
I4237
sS'PF08060'
p2119
I4792
sS'PF11348'
p2120
I4794
sS'PF04187'
p2121
I3051
sS'PF11344'
p2122
I4247
sS'PF11346'
p2123
I4816
sS'PF01270'
p2124
I6455
sS'PF01272'
p2125
I4253
sS'PF01274'
p2126
I4255
sS'PF01277'
p2127
I4256
sS'PF01276'
p2128
I4257
sS'PF04575'
p2129
I4258
sS'PF01278'
p2130
I4259
sS'PF07009'
p2131
I6292
sS'PF00058'
p2132
I4872
sS'PF00059'
p2133
I4873
sS'PF00056'
p2134
I4270
sS'PF07005'
p2135
I4271
sS'PF07007'
p2136
I4272
sS'PF00050'
p2137
I1264
sS'PF08608'
p2138
I4904
sS'PF08606'
p2139
I4279
sS'PF11203'
p2140
I4925
sS'PF02675'
p2141
I6772
sS'PF09895'
p2142
I4320
sS'PF09894'
p2143
I4321
sS'PF09897'
p2144
I4322
sS'PF09891'
p2145
I4324
sS'PF09890'
p2146
I4325
sS'PF09893'
p2147
I4326
sS'PF09892'
p2148
I4327
sS'PF09899'
p2149
I4328
sS'PF09898'
p2150
I5296
sS'PF06067'
p2151
I4340
sS'PF06066'
p2152
I4341
sS'PF06061'
p2153
I4342
sS'PF06062'
p2154
I4344
sS'PF11972'
p2155
I4345
sS'PF06069'
p2156
I209
sS'PF11976'
p2157
I634
sS'PF11974'
p2158
I4349
sS'PF03658'
p2159
I4356
sS'PF03129'
p2160
I4357
sS'PF03128'
p2161
I4358
sS'PF03657'
p2162
I4359
sS'PF03123'
p2163
I4360
sS'PF03653'
p2164
I4362
sS'PF03652'
p2165
I4363
sS'PF01877'
p2166
I4373
sS'PF01876'
p2167
I4374
sS'PF01875'
p2168
I4375
sS'PF01874'
p2169
I4376
sS'PF01873'
p2170
I4377
sS'PF01872'
p2171
I4378
sS'PF01871'
p2172
I4379
sS'PF01870'
p2173
I4380
sS'PF01878'
p2174
I4383
sS'PF12585'
p2175
I4385
sS'PF12051'
p2176
I4393
sS'PF12052'
p2177
I4394
sS'PF02838'
p2178
I4399
sS'PF02839'
p2179
I4400
sS'PF02529'
p2180
I5771
sS'PF08858'
p2181
I4403
sS'PF08859'
p2182
I5774
sS'PF02524'
p2183
I4405
sS'PF02525'
p2184
I4406
sS'PF02526'
p2185
I4151
sS'PF02295'
p2186
I2901
sS'PF08852'
p2187
I4409
sS'PF08853'
p2188
I4410
sS'PF02522'
p2189
I4208
sS'PF08851'
p2190
I4412
sS'PF11599'
p2191
I5805
sS'PF11598'
p2192
I5806
sS'PF11591'
p2193
I6083
sS'PF11590'
p2194
I6089
sS'PF11593'
p2195
I4422
sS'PF04966'
p2196
I4424
sS'PF04967'
p2197
I4425
sS'PF04964'
p2198
I4426
sS'PF04965'
p2199
I4427
sS'PF04962'
p2200
I4428
sS'PF04963'
p2201
I4429
sS'PF04960'
p2202
I4430
sS'PF04961'
p2203
I4431
sS'PF04969'
p2204
I4433
sS'PF07987'
p2205
I3078
sS'PF02748'
p2206
I4444
sS'PF02749'
p2207
I4445
sS'PF02740'
p2208
I4446
sS'PF02741'
p2209
I4447
sS'PF02742'
p2210
I4448
sS'PF02743'
p2211
I4449
sS'PF02744'
p2212
I4450
sS'PF02745'
p2213
I4451
sS'PF02746'
p2214
I4452
sS'PF02747'
p2215
I4453
sS'PF07982'
p2216
I5940
sS'PF10754'
p2217
I4460
sS'PF10755'
p2218
I4461
sS'PF10756'
p2219
I4462
sS'PF10757'
p2220
I4463
sS'PF10750'
p2221
I4464
sS'PF10753'
p2222
I4465
sS'PF10758'
p2223
I4467
sS'PF10759'
p2224
I4468
sS'PF04298'
p2225
I4478
sS'PF04299'
p2226
I4479
sS'PF09075'
p2227
I4480
sS'PF09074'
p2228
I6160
sS'PF09072'
p2229
I4483
sS'PF04290'
p2230
I4484
sS'PF04293'
p2231
I4486
sS'PF04294'
p2232
I4487
sS'PF04295'
p2233
I4488
sS'PF04296'
p2234
I4489
sS'PF04297'
p2235
I4490
sS'PF07922'
p2236
I4491
sS'PF07920'
p2237
I4492
sS'PF07927'
p2238
I4493
sS'PF07924'
p2239
I4494
sS'PF07929'
p2240
I4495
sS'PF00608'
p2241
I4496
sS'PF08470'
p2242
I4497
sS'PF08471'
p2243
I4498
sS'PF08475'
p2244
I4500
sS'PF08476'
p2245
I4501
sS'PF08477'
p2246
I4502
sS'PF08478'
p2247
I6245
sS'PF08479'
p2248
I6246
sS'PF05219'
p2249
I6254
sS'PF01514'
p2250
I4511
sS'PF01515'
p2251
I1017
sS'PF04036'
p2252
I4513
sS'PF01517'
p2253
I1066
sS'PF04030'
p2254
I4515
sS'PF01512'
p2255
I4516
sS'PF01513'
p2256
I4517
sS'PF04748'
p2257
I4520
sS'PF04038'
p2258
I6283
sS'PF01519'
p2259
I1175
sS'PF10342'
p2260
I4526
sS'PF10340'
p2261
I4527
sS'PF10346'
p2262
I4528
sS'PF10345'
p2263
I4529
sS'PF08290'
p2264
I4540
sS'PF08291'
p2265
I4541
sS'PF12612'
p2266
I4542
sS'PF08298'
p2267
I4543
sS'PF08299'
p2268
I4544
sS'PF12614'
p2269
I4545
sS'PF06520'
p2270
I4546
sS'PF06524'
p2271
I4547
sS'PF06525'
p2272
I4548
sS'PF06526'
p2273
I4549
sS'PF06527'
p2274
I4550
sS'PF06528'
p2275
I4551
sS'PF10966'
p2276
I4553
sS'PF10964'
p2277
I4554
sS'PF10960'
p2278
I4555
sS'PF10969'
p2279
I4557
sS'PF07210'
p2280
I4558
sS'PF07213'
p2281
I4559
sS'PF07214'
p2282
I4561
sS'PF07216'
p2283
I4562
sS'PF07219'
p2284
I4563
sS'PF11278'
p2285
I4564
sS'PF06298'
p2286
I4576
sS'PF06299'
p2287
I4577
sS'PF06293'
p2288
I4578
sS'PF06296'
p2289
I4579
sS'PF06295'
p2290
I4580
sS'PF12269'
p2291
I4590
sS'PF09397'
p2292
I4591
sS'PF12262'
p2293
I4592
sS'PF12261'
p2294
I4593
sS'PF02969'
p2295
I4594
sS'PF10579'
p2296
I4606
sS'PF09391'
p2297
I4607
sS'PF07188'
p2298
I4608
sS'PF07184'
p2299
I4612
sS'PF02195'
p2300
I4613
sS'PF02194'
p2301
I4614
sS'PF02197'
p2302
I4615
sS'PF02190'
p2303
I4617
sS'PF00702'
p2304
I4629
sS'PF00703'
p2305
I4630
sS'PF02995'
p2306
I6327
sS'PF02996'
p2307
I4633
sS'PF00871'
p2308
I4636
sS'PF10509'
p2309
I4637
sS'PF00704'
p2310
I4638
sS'PF10501'
p2311
I4639
sS'PF10500'
p2312
I240
sS'PF10503'
p2313
I4641
sS'PF10502'
p2314
I4642
sS'PF10504'
p2315
I4643
sS'PF10507'
p2316
I4644
sS'PF10506'
p2317
I4645
sS'PF03822'
p2318
I3994
sS'PF03823'
p2319
I312
sS'PF03357'
p2320
I2724
sS'PF03350'
p2321
I316
sS'PF03351'
p2322
I4653
sS'PF03352'
p2323
I4654
sS'PF03353'
p2324
I322
sS'PF03828'
p2325
I334
sS'PF03829'
p2326
I4659
sS'PF03358'
p2327
I2867
sS'PF02560'
p2328
I5366
sS'PF09718'
p2329
I4665
sS'PF09719'
p2330
I4666
sS'PF09249'
p2331
I4667
sS'PF02561'
p2332
I4668
sS'PF09712'
p2333
I371
sS'PF09713'
p2334
I4670
sS'PF02562'
p2335
I5368
sS'PF09242'
p2336
I379
sS'PF09243'
p2337
I4674
sS'PF02563'
p2338
I5369
sS'PF02566'
p2339
I2881
sS'PF05173'
p2340
I4691
sS'PF05170'
p2341
I4692
sS'PF05171'
p2342
I446
sS'PF05039'
p2343
I2122
sS'PF05174'
p2344
I4696
sS'PF05175'
p2345
I4697
sS'PF05976'
p2346
I4703
sS'PF05977'
p2347
I4704
sS'PF00344'
p2348
I2841
sS'PF01079'
p2349
I4716
sS'PF01078'
p2350
I4717
sS'PF01077'
p2351
I4718
sS'PF01076'
p2352
I4719
sS'PF01075'
p2353
I4720
sS'PF01074'
p2354
I4721
sS'PF01073'
p2355
I4722
sS'PF01471'
p2356
I746
sS'PF01071'
p2357
I4724
sS'PF01070'
p2358
I4725
sS'PF04116'
p2359
I4731
sS'PF08049'
p2360
I4732
sS'PF08048'
p2361
I684
sS'PF08598'
p2362
I4734
sS'PF04115'
p2363
I4736
sS'PF08041'
p2364
I4738
sS'PF08592'
p2365
I4739
sS'PF08043'
p2366
I4740
sS'PF08590'
p2367
I1871
sS'PF08044'
p2368
I4742
sS'PF08047'
p2369
I4743
sS'PF08046'
p2370
I4744
sS'PF01219'
p2371
I4754
sS'PF01218'
p2372
I4755
sS'PF02696'
p2373
I6312
sS'PF01212'
p2374
I4759
sS'PF01210'
p2375
I4761
sS'PF00038'
p2376
I4765
sS'PF08624'
p2377
I559
sS'PF08621'
p2378
I4769
sS'PF00030'
p2379
I4772
sS'PF00032'
p2380
I4774
sS'PF00033'
p2381
I4775
sS'PF08629'
p2382
I849
sS'PF00035'
p2383
I4777
sS'PF00036'
p2384
I4778
sS'PF00037'
p2385
I4779
sS'PF10242'
p2386
I2885
sS'PF10241'
p2387
I4787
sS'PF07027'
p2388
I4801
sS'PF07024'
p2389
I4802
sS'PF07022'
p2390
I4803
sS'PF07023'
p2391
I4804
sS'PF07021'
p2392
I4805
sS'PF10287'
p2393
I1132
sS'PF10282'
p2394
I4807
sS'PF10280'
p2395
I4809
sS'PF07029'
p2396
I4810
sS'PF06887'
p2397
I4811
sS'PF06886'
p2398
I4812
sS'PF06884'
p2399
I4813
sS'PF06882'
p2400
I4814
sS'PF04171'
p2401
I4821
sS'PF01704'
p2402
I4823
sS'PF09879'
p2403
I4825
sS'PF09878'
p2404
I4826
sS'PF09877'
p2405
I4827
sS'PF09876'
p2406
I4828
sS'PF09875'
p2407
I4829
sS'PF09874'
p2408
I4830
sS'PF09873'
p2409
I4831
sS'PF09872'
p2410
I4832
sS'PF09871'
p2411
I4833
sS'PF09870'
p2412
I4834
sS'PF06089'
p2413
I1345
sS'PF06085'
p2414
I4845
sS'PF06082'
p2415
I4847
sS'PF06081'
p2416
I4848
sS'PF06080'
p2417
I4849
sS'PF03109'
p2418
I4850
sS'PF03100'
p2419
I4852
sS'PF03102'
p2420
I4853
sS'PF03104'
p2421
I4854
sS'PF03107'
p2422
I4855
sS'PF01851'
p2423
I4868
sS'PF01850'
p2424
I4869
sS'PF01852'
p2425
I4870
sS'PF01855'
p2426
I4871
sS'PF11954'
p2427
I5155
sS'PF11952'
p2428
I4881
sS'PF02507'
p2429
I4894
sS'PF02504'
p2430
I4895
sS'PF02505'
p2431
I4896
sS'PF02502'
p2432
I4897
sS'PF02503'
p2433
I4898
sS'PF02501'
p2434
I4899
sS'PF02508'
p2435
I4901
sS'PF02509'
p2436
I3535
sS'PF08838'
p2437
I4903
sS'PF08830'
p2438
I4907
sS'PF08833'
p2439
I4908
sS'PF08837'
p2440
I4909
sS'PF04900'
p2441
I4914
sS'PF04906'
p2442
I4916
sS'PF04908'
p2443
I4917
sS'PF04909'
p2444
I4918
sS'PF02767'
p2445
I4920
sS'PF02768'
p2446
I4921
sS'PF02769'
p2447
I4922
sS'PF10779'
p2448
I4934
sS'PF10776'
p2449
I4935
sS'PF10777'
p2450
I4936
sS'PF10772'
p2451
I4937
sS'PF10773'
p2452
I4938
sS'PF10770'
p2453
I4939
sS'PF10771'
p2454
I4940
sS'PF01687'
p2455
I4948
sS'PF01680'
p2456
I4949
sS'PF09051'
p2457
I4955
sS'PF09050'
p2458
I4956
sS'PF09055'
p2459
I4957
sS'PF09054'
p2460
I4958
sS'PF09509'
p2461
I4959
sS'PF09056'
p2462
I4960
sS'PF09059'
p2463
I4961
sS'PF09058'
p2464
I4962
sS'PF09501'
p2465
I4966
sS'PF09500'
p2466
I4967
sS'PF07909'
p2467
I4968
sS'PF00628'
p2468
I2253
sS'PF07905'
p2469
I2260
sS'PF00624'
p2470
I4971
sS'PF00627'
p2471
I4785
sS'PF00626'
p2472
I4973
sS'PF00623'
p2473
I4974
sS'PF00622'
p2474
I2292
sS'PF05231'
p2475
I4976
sS'PF05230'
p2476
I2301
sS'PF05233'
p2477
I4978
sS'PF08459'
p2478
I2306
sS'PF05235'
p2479
I4980
sS'PF05234'
p2480
I3001
sS'PF05237'
p2481
I4982
sS'PF05239'
p2482
I2329
sS'PF08453'
p2483
I4984
sS'PF08450'
p2484
I20
sS'PF08455'
p2485
I2343
sS'PF04018'
p2486
I4992
sS'PF04019'
p2487
I4993
sS'PF01536'
p2488
I4994
sS'PF04017'
p2489
I4995
sS'PF04014'
p2490
I4996
sS'PF04015'
p2491
I4997
sS'PF01532'
p2492
I2381
sS'PF04013'
p2493
I4999
sS'PF01530'
p2494
I5000
sS'PF01531'
p2495
I2389
sS'PF10369'
p2496
I5002
sS'PF10368'
p2497
I5003
sS'PF10364'
p2498
I5004
sS'PF10366'
p2499
I5005
sS'PF10362'
p2500
I5006
sS'PF00489'
p2501
I5007
sS'PF00488'
p2502
I5008
sS'PF00481'
p2503
I5009
sS'PF00480'
p2504
I5010
sS'PF00483'
p2505
I5011
sS'PF00482'
p2506
I5012
sS'PF00485'
p2507
I5013
sS'PF00484'
p2508
I2431
sS'PF00487'
p2509
I5015
sS'PF00486'
p2510
I5016
sS'PF06999'
p2511
I5769
sS'PF06508'
p2512
I5024
sS'PF06509'
p2513
I5025
sS'PF06502'
p2514
I5029
sS'PF06500'
p2515
I5030
sS'PF06506'
p2516
I2641
sS'PF06505'
p2517
I5034
sS'PF10941'
p2518
I5035
sS'PF10945'
p2519
I2644
sS'PF10944'
p2520
I2645
sS'PF10947'
p2521
I5041
sS'PF10948'
p2522
I5043
sS'PF07273'
p2523
I5047
sS'PF07277'
p2524
I5048
sS'PF07276'
p2525
I5049
sS'PF07275'
p2526
I5050
sS'PF07274'
p2527
I5051
sS'PF11016'
p2528
I1489
sS'PF11010'
p2529
I1642
sS'PF11011'
p2530
I4887
sS'PF11012'
p2531
I1773
sS'PF01990'
p2532
I5067
sS'PF01991'
p2533
I5068
sS'PF01992'
p2534
I5069
sS'PF01993'
p2535
I5070
sS'PF01994'
p2536
I5071
sS'PF01995'
p2537
I5072
sS'PF01996'
p2538
I5073
sS'PF01997'
p2539
I5074
sS'PF01998'
p2540
I6060
sS'PF01914'
p2541
I3170
sS'PF08119'
p2542
I5084
sS'PF03192'
p2543
I3179
sS'PF03621'
p2544
I1003
sS'PF03592'
p2545
I5097
sS'PF03590'
p2546
I5098
sS'PF03591'
p2547
I5099
sS'PF03596'
p2548
I5100
sS'PF03597'
p2549
I5101
sS'PF03594'
p2550
I5102
sS'PF03595'
p2551
I5103
sS'PF03598'
p2552
I5104
sS'PF03599'
p2553
I5105
sS'PF11113'
p2554
I5106
sS'PF10562'
p2555
I5107
sS'PF10561'
p2556
I5108
sS'PF10566'
p2557
I5109
sS'PF02979'
p2558
I5110
sS'PF02978'
p2559
I6787
sS'PF02977'
p2560
I5112
sS'PF02976'
p2561
I5113
sS'PF02975'
p2562
I4915
sS'PF02974'
p2563
I5115
sS'PF02973'
p2564
I5116
sS'PF02971'
p2565
I5117
sS'PF02970'
p2566
I5118
sS'PF09525'
p2567
I5454
sS'PF09035'
p2568
I5134
sS'PF03379'
p2569
I5135
sS'PF03374'
p2570
I5136
sS'PF03372'
p2571
I5137
sS'PF03373'
p2572
I3312
sS'PF02862'
p2573
I5343
sS'PF07826'
p2574
I5143
sS'PF02867'
p2575
I3194
sS'PF02866'
p2576
I3195
sS'PF07825'
p2577
I821
sS'PF00292'
p2578
I5157
sS'PF09267'
p2579
I3620
sS'PF09265'
p2580
I5169
sS'PF09261'
p2581
I5170
sS'PF01051'
p2582
I5171
sS'PF01050'
p2583
I5172
sS'PF01053'
p2584
I5173
sS'PF01052'
p2585
I5174
sS'PF01055'
p2586
I5175
sS'PF09268'
p2587
I5176
sS'PF09269'
p2588
I5177
sS'PF08023'
p2589
I5178
sS'PF08022'
p2590
I5179
sS'PF08021'
p2591
I3634
sS'PF08020'
p2592
I2334
sS'PF08026'
p2593
I2353
sS'PF08025'
p2594
I5183
sS'PF08024'
p2595
I5184
sS'PF06667'
p2596
I4923
sS'PF08029'
p2597
I5187
sS'PF08028'
p2598
I5188
sS'PF11384'
p2599
I3683
sS'PF06196'
p2600
I836
sS'PF11380'
p2601
I3688
sS'PF11381'
p2602
I3690
sS'PF01235'
p2603
I3706
sS'PF01234'
p2604
I5204
sS'PF01231'
p2605
I5207
sS'PF01230'
p2606
I5208
sS'PF01232'
p2607
I5209
sS'PF01239'
p2608
I5405
sS'PF01238'
p2609
I5214
sS'PF09190'
p2610
I5217
sS'PF09193'
p2611
I5218
sS'PF09194'
p2612
I5219
sS'PF09195'
p2613
I5220
sS'PF09198'
p2614
I5223
sS'PF04131'
p2615
I5229
sS'PF07977'
p2616
I3795
sS'PF01551'
p2617
I5474
sS'PF01553'
p2618
I5476
sS'PF01554'
p2619
I5477
sS'PF01555'
p2620
I5478
sS'PF04467'
p2621
I5260
sS'PF04466'
p2622
I5261
sS'PF04464'
p2623
I5262
sS'PF04463'
p2624
I5263
sS'PF04462'
p2625
I5264
sS'PF04461'
p2626
I5265
sS'PF01557'
p2627
I5480
sS'PF04468'
p2628
I5268
sS'PF00012'
p2629
I5275
sS'PF00013'
p2630
I5276
sS'PF07042'
p2631
I5277
sS'PF00011'
p2632
I5278
sS'PF00016'
p2633
I5279
sS'PF07045'
p2634
I5280
sS'PF00014'
p2635
I5281
sS'PF00015'
p2636
I4085
sS'PF07048'
p2637
I5283
sS'PF07049'
p2638
I5284
sS'PF00018'
p2639
I5285
sS'PF00548'
p2640
I5287
sS'PF00549'
p2641
I5288
sS'PF06319'
p2642
I5290
sS'PF06316'
p2643
I5291
sS'PF06315'
p2644
I5292
sS'PF06314'
p2645
I5293
sS'PF06810'
p2646
I6675
sS'PF09859'
p2647
I5300
sS'PF09858'
p2648
I5301
sS'PF09851'
p2649
I5306
sS'PF09850'
p2650
I5307
sS'PF09853'
p2651
I4560
sS'PF09852'
p2652
I4206
sS'PF09855'
p2653
I5310
sS'PF09854'
p2654
I5311
sS'PF09857'
p2655
I5312
sS'PF09856'
p2656
I5313
sS'PF00877'
p2657
I5316
sS'PF03162'
p2658
I5317
sS'PF03161'
p2659
I5318
sS'PF03160'
p2660
I5319
sS'PF03167'
p2661
I5320
sS'PF03169'
p2662
I5321
sS'PF03168'
p2663
I5322
sS'PF01839'
p2664
I5334
sS'PF12549'
p2665
I5335
sS'PF01833'
p2666
I5336
sS'PF01832'
p2667
I5337
sS'PF12544'
p2668
I5338
sS'PF01837'
p2669
I5339
sS'PF01835'
p2670
I5340
sS'PF03787'
p2671
I5348
sS'PF03786'
p2672
I4585
sS'PF03784'
p2673
I5350
sS'PF03783'
p2674
I5351
sS'PF03781'
p2675
I4598
sS'PF03780'
p2676
I5354
sS'PF03789'
p2677
I5361
sS'PF03788'
p2678
I5362
sS'PF08812'
p2679
I4664
sS'PF08813'
p2680
I5367
sS'PF08810'
p2681
I4672
sS'PF08811'
p2682
I4676
sS'PF08816'
p2683
I5370
sS'PF02565'
p2684
I5371
sS'PF08814'
p2685
I5372
sS'PF02567'
p2686
I4693
sS'PF02568'
p2687
I5374
sS'PF02569'
p2688
I5375
sS'PF08818'
p2689
I5376
sS'PF08819'
p2690
I5377
sS'PF12095'
p2691
I4700
sS'PF12097'
p2692
I5379
sS'PF04921'
p2693
I5392
sS'PF04925'
p2694
I5393
sS'PF02788'
p2695
I5394
sS'PF02789'
p2696
I5395
sS'PF02784'
p2697
I5396
sS'PF02785'
p2698
I5397
sS'PF02786'
p2699
I5398
sS'PF02787'
p2700
I5399
sS'PF02780'
p2701
I5400
sS'PF02781'
p2702
I5401
sS'PF02782'
p2703
I5402
sS'PF02783'
p2704
I5403
sS'PF02527'
p2705
I5785
sS'PF10718'
p2706
I5413
sS'PF10719'
p2707
I1367
sS'PF10710'
p2708
I5420
sS'PF10711'
p2709
I5421
sS'PF10712'
p2710
I5422
sS'PF10713'
p2711
I5423
sS'PF10716'
p2712
I5021
sS'PF05783'
p2713
I5426
sS'PF04477'
p2714
I5566
sS'PF05785'
p2715
I5428
sS'PF05787'
p2716
I5429
sS'PF05037'
p2717
I5430
sS'PF05036'
p2718
I5431
sS'PF05035'
p2719
I5432
sS'PF05034'
p2720
I5052
sS'PF05031'
p2721
I5434
sS'PF04258'
p2722
I5438
sS'PF04259'
p2723
I5439
sS'PF04254'
p2724
I5441
sS'PF04255'
p2725
I5442
sS'PF04256'
p2726
I5443
sS'PF04257'
p2727
I5444
sS'PF04250'
p2728
I5445
sS'PF04252'
p2729
I5446
sS'PF09529'
p2730
I5447
sS'PF09039'
p2731
I5449
sS'PF09523'
p2732
I5452
sS'PF09037'
p2733
I5129
sS'PF09524'
p2734
I5455
sS'PF09527'
p2735
I5456
sS'PF09526'
p2736
I5457
sS'PF05258'
p2737
I5466
sS'PF05253'
p2738
I5468
sS'PF05257'
p2739
I5469
sS'PF05256'
p2740
I5470
sS'PF01558'
p2741
I5471
sS'PF04079'
p2742
I5472
sS'PF04070'
p2743
I5473
sS'PF04071'
p2744
I5255
sS'PF04072'
p2745
I5475
sS'PF04073'
p2746
I5257
sS'PF04074'
p2747
I5258
sS'PF04075'
p2748
I5259
sS'PF04076'
p2749
I4081
sS'PF04077'
p2750
I5267
sS'PF10074'
p2751
I5481
sS'PF09778'
p2752
I5486
sS'PF08961'
p2753
I5488
sS'PF07789'
p2754
I5424
sS'PF07788'
p2755
I5492
sS'PF09775'
p2756
I2061
sS'PF07783'
p2757
I5496
sS'PF11803'
p2758
I5497
sS'PF07787'
p2759
I5498
sS'PF07786'
p2760
I5499
sS'PF07784'
p2761
I5500
sS'PF07437'
p2762
I5501
sS'PF09770'
p2763
I5503
sS'PF04784'
p2764
I5507
sS'PF07079'
p2765
I6360
sS'PF04788'
p2766
I5549
sS'PF07436'
p2767
I3867
sS'PF07527'
p2768
I5521
sS'PF00206'
p2769
I5522
sS'PF10929'
p2770
I3379
sS'PF07256'
p2771
I5524
sS'PF00203'
p2772
I5525
sS'PF00202'
p2773
I5526
sS'PF07521'
p2774
I5527
sS'PF07520'
p2775
I5528
sS'PF10921'
p2776
I5530
sS'PF00209'
p2777
I5531
sS'PF00208'
p2778
I5532
sS'PF07075'
p2779
I6428
sS'PF00578'
p2780
I5514
sS'PF06780'
p2781
I5543
sS'PF06781'
p2782
I5544
sS'PF06782'
p2783
I5545
sS'PF06785'
p2784
I5546
sS'PF06786'
p2785
I5547
sS'PF06787'
p2786
I5548
sS'PF00207'
p2787
I5551
sS'PF07254'
p2788
I5552
sS'PF00205'
p2789
I5523
sS'PF00204'
p2790
I5556
sS'PF07523'
p2791
I5559
sS'PF00201'
p2792
I5564
sS'PF03323'
p2793
I5842
sS'PF06124'
p2794
I5572
sS'PF06125'
p2795
I5573
sS'PF06127'
p2796
I5574
sS'PF07529'
p2797
I5575
sS'PF06122'
p2798
I5576
sS'PF06123'
p2799
I5577
sS'PF06128'
p2800
I5579
sS'PF03578'
p2801
I5585
sS'PF03574'
p2802
I5587
sS'PF03575'
p2803
I5588
sS'PF03576'
p2804
I5589
sS'PF03577'
p2805
I5590
sS'PF03572'
p2806
I5591
sS'PF02958'
p2807
I6020
sS'PF10549'
p2808
I6023
sS'PF02951'
p2809
I5599
sS'PF10544'
p2810
I5600
sS'PF10547'
p2811
I5601
sS'PF10546'
p2812
I5602
sS'PF02955'
p2813
I5603
sS'PF02954'
p2814
I5604
sS'PF10543'
p2815
I6044
sS'PF10542'
p2816
I5606
sS'PF08429'
p2817
I2331
sS'PF08428'
p2818
I374
sS'PF03318'
p2819
I5621
sS'PF03319'
p2820
I5622
sS'PF03310'
p2821
I5624
sS'PF03313'
p2822
I5625
sS'PF03315'
p2823
I5626
sS'PF03316'
p2824
I5627
sS'PF08423'
p2825
I5628
sS'PF08421'
p2826
I449
sS'PF03232'
p2827
I5633
sS'PF01724'
p2828
I675
sS'PF03237'
p2829
I5635
sS'PF12370'
p2830
I5637
sS'PF03727'
p2831
I5638
sS'PF12372'
p2832
I5639
sS'PF12373'
p2833
I5640
sS'PF11639'
p2834
I5646
sS'PF10113'
p2835
I3048
sS'PF11634'
p2836
I5648
sS'PF11636'
p2837
I5649
sS'PF01032'
p2838
I5651
sS'PF09113'
p2839
I5652
sS'PF01037'
p2840
I5653
sS'PF01036'
p2841
I5654
sS'PF01035'
p2842
I5655
sS'PF01034'
p2843
I5656
sS'PF09114'
p2844
I5657
sS'PF01039'
p2845
I5658
sS'PF09115'
p2846
I5659
sS'PF09200'
p2847
I5660
sS'PF09202'
p2848
I5661
sS'PF02044'
p2849
I3343
sS'PF02043'
p2850
I5663
sS'PF02042'
p2851
I3382
sS'PF02041'
p2852
I5665
sS'PF02040'
p2853
I5666
sS'PF09209'
p2854
I5667
sS'PF10115'
p2855
I5668
sS'PF02049'
p2856
I5669
sS'PF02048'
p2857
I6454
sS'PF08009'
p2858
I6465
sS'PF08559'
p2859
I6467
sS'PF08557'
p2860
I6470
sS'PF08007'
p2861
I6476
sS'PF08006'
p2862
I5680
sS'PF08000'
p2863
I6479
sS'PF08003'
p2864
I5683
sS'PF08002'
p2865
I6677
sS'PF01789'
p2866
I5689
sS'PF01788'
p2867
I5690
sS'PF01784'
p2868
I5692
sS'PF01786'
p2869
I5693
sS'PF07452'
p2870
I6416
sS'PF01780'
p2871
I5694
sS'PF01783'
p2872
I5695
sS'PF01782'
p2873
I5696
sS'PF07451'
p2874
I5701
sS'PF07450'
p2875
I5704
sS'PF00782'
p2876
I5706
sS'PF00781'
p2877
I5707
sS'PF00788'
p2878
I5709
sS'PF04443'
p2879
I5714
sS'PF04442'
p2880
I6806
sS'PF04445'
p2881
I5716
sS'PF04444'
p2882
I5717
sS'PF04446'
p2883
I2
sS'PF00566'
p2884
I5734
sS'PF07063'
p2885
I5735
sS'PF00564'
p2886
I5736
sS'PF00565'
p2887
I5737
sS'PF00562'
p2888
I91
sS'PF00563'
p2889
I5739
sS'PF00560'
p2890
I5740
sS'PF00561'
p2891
I5741
sS'PF06339'
p2892
I5742
sS'PF06338'
p2893
I94
sS'PF06331'
p2894
I5750
sS'PF06330'
p2895
I5751
sS'PF06335'
p2896
I6411
sS'PF06336'
p2897
I5754
sS'PF09832'
p2898
I5755
sS'PF09831'
p2899
I5756
sS'PF09830'
p2900
I5757
sS'PF09837'
p2901
I5758
sS'PF09836'
p2902
I5759
sS'PF09835'
p2903
I5760
sS'PF09834'
p2904
I5761
sS'PF09839'
p2905
I5763
sS'PF09838'
p2906
I5764
sS'PF10697'
p2907
I3191
sS'PF03144'
p2908
I5778
sS'PF03147'
p2909
I5779
sS'PF03141'
p2910
I5780
sS'PF03143'
p2911
I5782
sS'PF03142'
p2912
I5783
sS'PF11190'
p2913
I5788
sS'PF11197'
p2914
I5791
sS'PF11196'
p2915
I5792
sS'PF01815'
p2916
I5797
sS'PF01814'
p2917
I5798
sS'PF01817'
p2918
I5799
sS'PF01816'
p2919
I5800
sS'PF01810'
p2920
I445
sS'PF01813'
p2921
I5803
sS'PF01812'
p2922
I447
sS'PF12569'
p2923
I5807
sS'PF12563'
p2924
I5810
sS'PF12566'
p2925
I5811
sS'PF11998'
p2926
I530
sS'PF11991'
p2927
I5818
sS'PF11990'
p2928
I539
sS'PF11992'
p2929
I450
sS'PF11994'
p2930
I547
sS'PF04268'
p2931
I6457
sS'PF02548'
p2932
I5839
sS'PF02238'
p2933
I5840
sS'PF02239'
p2934
I4640
sS'PF02542'
p2935
I5844
sS'PF02543'
p2936
I5845
sS'PF02540'
p2937
I5846
sS'PF02541'
p2938
I2418
sS'PF02230'
p2939
I5848
sS'PF02547'
p2940
I666
sS'PF02544'
p2941
I5850
sS'PF02545'
p2942
I672
sS'PF07620'
p2943
I5861
sS'PF07993'
p2944
I5862
sS'PF10485'
p2945
I5863
sS'PF07991'
p2946
I5865
sS'PF07624'
p2947
I2191
sS'PF07997'
p2948
I5870
sS'PF10628'
p2949
I5871
sS'PF07626'
p2950
I5872
sS'PF07627'
p2951
I5873
sS'PF10736'
p2952
I5875
sS'PF10734'
p2953
I5876
sS'PF10735'
p2954
I5877
sS'PF10738'
p2955
I5880
sS'PF10739'
p2956
I5881
sS'PF05019'
p2957
I5894
sS'PF05010'
p2958
I2538
sS'PF05013'
p2959
I5901
sS'PF05015'
p2960
I5902
sS'PF05014'
p2961
I5903
sS'PF05017'
p2962
I5904
sS'PF05016'
p2963
I5905
sS'PF09015'
p2964
I373
sS'PF09541'
p2965
I5874
sS'PF09540'
p2966
I5909
sS'PF09011'
p2967
I5119
sS'PF09010'
p2968
I1057
sS'PF09013'
p2969
I5912
sS'PF09012'
p2970
I1065
sS'PF09548'
p2971
I5917
sS'PF09019'
p2972
I5918
sS'PF09018'
p2973
I536
sS'PF10625'
p2974
I1928
sS'PF05275'
p2975
I5923
sS'PF05277'
p2976
I1129
sS'PF05276'
p2977
I1131
sS'PF05270'
p2978
I5926
sS'PF05272'
p2979
I5927
sS'PF05279'
p2980
I2143
sS'PF12128'
p2981
I5939
sS'PF11464'
p2982
I2567
sS'PF11468'
p2983
I1329
sS'PF04276'
p2984
I5948
sS'PF04277'
p2985
I5949
sS'PF04272'
p2986
I5951
sS'PF04273'
p2987
I5952
sS'PF04270'
p2988
I5953
sS'PF04271'
p2989
I5954
sS'PF04278'
p2990
I1365
sS'PF04279'
p2991
I5961
sS'PF00196'
p2992
I5963
sS'PF00195'
p2993
I5964
sS'PF00194'
p2994
I5965
sS'PF00193'
p2995
I5966
sS'PF00190'
p2996
I5968
sS'PF06754'
p2997
I2376
sS'PF00198'
p2998
I5970
sS'PF08765'
p2999
I1422
sS'PF08766'
p3000
I5972
sS'PF08760'
p3001
I5973
sS'PF08761'
p3002
I5974
sS'PF05901'
p3003
I5975
sS'PF08763'
p3004
I1428
sS'PF08768'
p3005
I2407
sS'PF08769'
p3006
I1448
sS'PF05908'
p3007
I5984
sS'PF04052'
p3008
I5988
sS'PF01571'
p3009
I5989
sS'PF04057'
p3010
I5990
sS'PF04055'
p3011
I1528
sS'PF01578'
p3012
I5993
sS'PF04059'
p3013
I1536
sS'PF07501'
p3014
I4991
sS'PF00220'
p3015
I5999
sS'PF00223'
p3016
I1564
sS'PF07505'
p3017
I6001
sS'PF00224'
p3018
I1133
sS'PF07507'
p3019
I5064
sS'PF07506'
p3020
I1586
sS'PF07509'
p3021
I6005
sS'PF00228'
p3022
I1592
sS'PF11051'
p3023
I1609
sS'PF11053'
p3024
I3538
sS'PF11056'
p3025
I1625
sS'PF04266'
p3026
I6485
sS'PF11242'
p3027
I6018
sS'PF10904'
p3028
I6028
sS'PF10907'
p3029
I1878
sS'PF02926'
p3030
I6314
sS'PF10902'
p3031
I6033
sS'PF02952'
p3032
I6038
sS'PF10541'
p3033
I6040
sS'PF07192'
p3034
I6042
sS'PF01643'
p3035
I6043
sS'PF06108'
p3036
I1951
sS'PF06106'
p3037
I6046
sS'PF06107'
p3038
I6047
sS'PF06103'
p3039
I6051
sS'PF06100'
p3040
I6052
sS'PF07191'
p3041
I6054
sS'PF03552'
p3042
I6055
sS'PF03553'
p3043
I6056
sS'PF03550'
p3044
I6057
sS'PF03551'
p3045
I6058
sS'PF00412'
p3046
I6059
sS'PF00413'
p3047
I2459
sS'PF03088'
p3048
I6062
sS'PF07194'
p3049
I6064
sS'PF03081'
p3050
I6065
sS'PF03083'
p3051
I6066
sS'PF03087'
p3052
I6067
sS'PF02690'
p3053
I6310
sS'PF03880'
p3054
I6070
sS'PF03881'
p3055
I6071
sS'PF03330'
p3056
I2157
sS'PF03883'
p3057
I2257
sS'PF03884'
p3058
I6074
sS'PF03885'
p3059
I6075
sS'PF03886'
p3060
I2171
sS'PF03887'
p3061
I2332
sS'PF03888'
p3062
I6078
sS'PF03889'
p3063
I6079
sS'PF02803'
p3064
I3691
sS'PF05488'
p3065
I6087
sS'PF05489'
p3066
I6088
sS'PF09094'
p3067
I963
sS'PF05480'
p3068
I6090
sS'PF05481'
p3069
I6091
sS'PF05484'
p3070
I6092
sS'PF02933'
p3071
I2354
sS'PF02932'
p3072
I2357
sS'PF02687'
p3073
I6096
sS'PF08994'
p3074
I2361
sS'PF02681'
p3075
I6098
sS'PF08992'
p3076
I2879
sS'PF02683'
p3077
I6100
sS'PF08990'
p3078
I2382
sS'PF02938'
p3079
I6102
sS'PF02689'
p3080
I6103
sS'PF02557'
p3081
I6104
sS'PF12350'
p3082
I6105
sS'PF12351'
p3083
I6106
sS'PF05962'
p3084
I6107
sS'PF09675'
p3085
I6108
sS'PF02224'
p3086
I6109
sS'PF11611'
p3087
I2415
sS'PF02551'
p3088
I6111
sS'PF02550'
p3089
I6113
sS'PF01019'
p3090
I5852
sS'PF01018'
p3091
I6118
sS'PF01015'
p3092
I6121
sS'PF01014'
p3093
I6122
sS'PF01016'
p3094
I2479
sS'PF01011'
p3095
I6124
sS'PF01012'
p3096
I6125
sS'PF02061'
p3097
I6126
sS'PF05987'
p3098
I6127
sS'PF02065'
p3099
I6128
sS'PF02064'
p3100
I6129
sS'PF02067'
p3101
I6130
sS'PF02069'
p3102
I6132
sS'PF09223'
p3103
I6133
sS'PF09221'
p3104
I6134
sS'PF04102'
p3105
I4145
sS'PF04103'
p3106
I2124
sS'PF04104'
p3107
I6146
sS'PF08577'
p3108
I6149
sS'PF05982'
p3109
I6150
sS'PF05981'
p3110
I6151
sS'PF04107'
p3111
I6152
sS'PF02833'
p3112
I6161
sS'PF09488'
p3113
I6165
sS'PF09489'
p3114
I6166
sS'PF09486'
p3115
I6167
sS'PF09484'
p3116
I6169
sS'PF09485'
p3117
I6170
sS'PF09480'
p3118
I6171
sS'PF09481'
p3119
I6172
sS'PF00768'
p3120
I6175
sS'PF00769'
p3121
I557
sS'PF00764'
p3122
I6179
sS'PF00765'
p3123
I6180
sS'PF00766'
p3124
I6181
sS'PF00762'
p3125
I6183
sS'PF00763'
p3126
I6184
sS'PF04428'
p3127
I6199
sS'PF04423'
p3128
I2943
sS'PF04422'
p3129
I6205
sS'PF04420'
p3130
I6206
sS'PF04427'
p3131
I6207
sS'PF10228'
p3132
I6210
sS'PF10222'
p3133
I6211
sS'PF00509'
p3134
I6212
sS'PF08681'
p3135
I6213
sS'PF08680'
p3136
I6214
sS'PF00501'
p3137
I6216
sS'PF00502'
p3138
I6116
sS'PF00505'
p3139
I3054
sS'PF00507'
p3140
I6222
sS'PF04151'
p3141
I6621
sS'PF09819'
p3142
I6234
sS'PF09818'
p3143
I6235
sS'PF09815'
p3144
I6236
sS'PF11578'
p3145
I6239
sS'PF06352'
p3146
I6252
sS'PF06357'
p3147
I6253
sS'PF06354'
p3148
I6256
sS'PF06359'
p3149
I6257
sS'PF06358'
p3150
I3383
sS'PF04225'
p3151
I6027
sS'PF04744'
p3152
I6274
sS'PF12502'
p3153
I6262
sS'PF12501'
p3154
I6263
sS'PF04224'
p3155
I6608
sS'PF07767'
p3156
I6277
sS'PF02214'
p3157
I6288
sS'PF02210'
p3158
I6290
sS'PF02211'
p3159
I303
sS'PF02218'
p3160
I6295
sS'PF02219'
p3161
I6296
sS'PF07004'
p3162
I4876
sS'PF05071'
p3163
I3921
sS'PF05076'
p3164
I3924
sS'PF09565'
p3165
I6347
sS'PF09560'
p3166
I6349
sS'PF09563'
p3167
I6350
sS'PF05299'
p3168
I6356
sS'PF05297'
p3169
I6357
sS'PF05294'
p3170
I6358
sS'PF05292'
p3171
I6359
sS'PF07725'
p3172
I6363
sS'PF00116'
p3173
I6365
sS'PF07727'
p3174
I6367
sS'PF11408'
p3175
I2019
sS'PF00113'
p3176
I6370
sS'PF11401'
p3177
I6371
sS'PF00112'
p3178
I6373
sS'PF04210'
p3179
I6390
sS'PF04211'
p3180
I6375
sS'PF04212'
p3181
I6376
sS'PF04213'
p3182
I6377
sS'PF04214'
p3183
I6378
sS'PF04215'
p3184
I4293
sS'PF04216'
p3185
I4294
sS'PF04217'
p3186
I6381
sS'PF04218'
p3187
I6382
sS'PF04219'
p3188
I4298
sS'PF07749'
p3189
I6391
sS'PF07748'
p3190
I6392
sS'PF07747'
p3191
I6393
sS'PF07746'
p3192
I6394
sS'PF07745'
p3193
I6395
sS'PF01922'
p3194
I6396
sS'PF07743'
p3195
I6397
sS'PF07455'
p3196
I2115
sS'PF07740'
p3197
I6400
sS'PF05923'
p3198
I6403
sS'PF05922'
p3199
I4364
sS'PF08218'
p3200
I6405
sS'PF05924'
p3201
I6406
sS'PF08748'
p3202
I4367
sS'PF08749'
p3203
I5082
sS'PF05929'
p3204
I462
sS'PF08747'
p3205
I4371
sS'PF08745'
p3206
I6412
sS'PF08210'
p3207
I4381
sS'PF08211'
p3208
I6414
sS'PF08212'
p3209
I6415
sS'PF08741'
p3210
I1900
sS'PF00331'
p3211
I1869
sS'PF00330'
p3212
I1037
sS'PF07602'
p3213
I6427
sS'PF09203'
p3214
I5662
sS'PF01599'
p3215
I6430
sS'PF01594'
p3216
I6431
sS'PF01595'
p3217
I6432
sS'PF01596'
p3218
I6433
sS'PF01597'
p3219
I6434
sS'PF01590'
p3220
I6435
sS'PF01591'
p3221
I6436
sS'PF01592'
p3222
I6437
sS'PF09205'
p3223
I5664
sS'PF07299'
p3224
I6439
sS'PF07298'
p3225
I6440
sS'PF00249'
p3226
I6441
sS'PF07568'
p3227
I4481
sS'PF07291'
p3228
I5835
sS'PF00242'
p3229
I652
sS'PF00241'
p3230
I669
sS'PF07295'
p3231
I6446
sS'PF07566'
p3232
I6447
sS'PF07565'
p3233
I4635
sS'PF07564'
p3234
I4647
sS'PF11072'
p3235
I6452
sS'PF11102'
p3236
I6453
sS'PF05791'
p3237
I5828
sS'PF11100'
p3238
I6456
sS'PF07601'
p3239
I1939
sS'PF11101'
p3240
I6458
sS'PF07242'
p3241
I2976
sS'PF06168'
p3242
I6480
sS'PF06169'
p3243
I6481
sS'PF09538'
p3244
I6482
sS'PF06160'
p3245
I6483
sS'PF06161'
p3246
I6484
sS'PF06163'
p3247
I2116
sS'PF06165'
p3248
I6486
sS'PF06166'
p3249
I6487
sS'PF06167'
p3250
I6488
sS'PF07604'
p3251
I6489
sS'PF03532'
p3252
I6490
sS'PF03533'
p3253
I6491
sS'PF03534'
p3254
I6492
sS'PF03536'
p3255
I6493
sS'PF03537'
p3256
I6494
sS'PF07605'
p3257
I6496
sS'PF07241'
p3258
I6497
sS'PF02335'
p3259
I6507
sS'PF07247'
p3260
I6513
sS'PF07853'
p3261
I6514
sS'PF12338'
p3262
I6520
sS'PF02919'
p3263
I6521
sS'PF02918'
p3264
I6522
sS'PF02669'
p3265
I6523
sS'PF02668'
p3266
I6524
sS'PF02667'
p3267
I4537
sS'PF02666'
p3268
I5266
sS'PF02665'
p3269
I6527
sS'PF12333'
p3270
I5270
sS'PF02911'
p3271
I5273
sS'PF02910'
p3272
I5274
sS'PF02661'
p3273
I6531
sS'PF02912'
p3274
I5286
sS'PF11672'
p3275
I6535
sS'PF11676'
p3276
I1540
sS'PF04404'
p3277
I6540
sS'PF07040'
p3278
I6549
sS'PF02002'
p3279
I6551
sS'PF02001'
p3280
I6552
sS'PF02007'
p3281
I6554
sS'PF02006'
p3282
I6555
sS'PF02005'
p3283
I6556
sS'PF00705'
p3284
I6557
sS'PF01293'
p3285
I6564
sS'PF01292'
p3286
I6565
sS'PF01290'
p3287
I6567
sS'PF01297'
p3288
I6568
sS'PF01296'
p3289
I6569
sS'PF01295'
p3290
I6570
sS'PF01299'
p3291
I6571
sS'PF01298'
p3292
I5502
sS'PF10677'
p3293
I6574
sS'PF10676'
p3294
I6575
sS'PF10675'
p3295
I6576
sS'PF10674'
p3296
I3153
sS'PF10673'
p3297
I6578
sS'PF10672'
p3298
I6579
sS'PF10671'
p3299
I6580
sS'PF10670'
p3300
I6581
sS'PF10679'
p3301
I6586
sS'PF10678'
p3302
I6587
sS'PF07043'
p3303
I4074
sS'PF00746'
p3304
I6592
sS'PF00745'
p3305
I6594
sS'PF00742'
p3306
I6595
sS'PF00743'
p3307
I6596
sS'PF00741'
p3308
I6597
sS'PF01331'
p3309
I3812
sS'PF08513'
p3310
I6599
sS'PF08512'
p3311
I6600
sS'PF08511'
p3312
I6601
sS'PF08510'
p3313
I6602
sS'PF08515'
p3314
I6605
sS'PF08518'
p3315
I6610
sS'PF04157'
p3316
I5323
sS'PF04156'
p3317
I5922
sS'PF04407'
p3318
I5753
sS'PF04406'
p3319
I6566
sS'PF04401'
p3320
I6588
sS'PF04400'
p3321
I5765
sS'PF01431'
p3322
I1509
sS'PF01430'
p3323
I5767
sS'PF04409'
p3324
I5773
sS'PF04408'
p3325
I5775
sS'PF04159'
p3326
I6628
sS'PF09604'
p3327
I6629
sS'PF09605'
p3328
I6630
sS'PF09606'
p3329
I6631
sS'PF10205'
p3330
I5789
sS'PF09600'
p3331
I6633
sS'PF09601'
p3332
I5793
sS'PF10200'
p3333
I6635
sS'PF09603'
p3334
I5796
sS'PF09608'
p3335
I1844
sS'PF09609'
p3336
I6642
sS'PF10208'
p3337
I3993
sS'PF00520'
p3338
I6646
sS'PF00521'
p3339
I6647
sS'PF00526'
p3340
I6648
sS'PF00528'
p3341
I6650
sS'PF00529'
p3342
I6651
sS'PF09334'
p3343
I6672
sS'PF03016'
p3344
I6680
sS'PF07174'
p3345
I6686
sS'PF07176'
p3346
I6687
sS'PF07171'
p3347
I6688
sS'PF07178'
p3348
I6692
sS'PF07179'
p3349
I4928
sS'PF04405'
p3350
I6615
sS'PF06379'
p3351
I6670
sS'PF06378'
p3352
I6676
sS'PF06808'
p3353
I6704
sS'PF06375'
p3354
I6705
sS'PF06806'
p3355
I6706
sS'PF06805'
p3356
I6707
sS'PF06376'
p3357
I6209
sS'PF06803'
p3358
I6709
sS'PF06800'
p3359
I6711
sS'PF12525'
p3360
I6723
sS'PF02272'
p3361
I6736
sS'PF02273'
p3362
I6737
sS'PF02274'
p3363
I6738
sS'PF02275'
p3364
I6739
sS'PF02276'
p3365
I6740
sS'PF02277'
p3366
I6741
sS'PF02278'
p3367
I6742
sS'PF10446'
p3368
I6756
sS'PF10447'
p3369
I6757
sS'PF10440'
p3370
I6758
sS'PF10442'
p3371
I6759
sS'PF10443'
p3372
I6553
sS'PF03275'
p3373
I6766
sS'PF03270'
p3374
I6770
sS'PF03279'
p3375
I6777
sS'PF12014'
p3376
I3459
sS'PF02494'
p3377
I6779
sS'PF02495'
p3378
I6780
sS'PF02496'
p3379
I6781
sS'PF12017'
p3380
I3464
sS'PF02492'
p3381
I6784
sS'PF02493'
p3382
I6785
sS'PF02498'
p3383
I6788
sS'PF02499'
p3384
I6789
sS'PF08777'
p3385
I6796
sS'PF05729'
p3386
I6797
sS'PF08776'
p3387
I5713
sS'PF05726'
p3388
I6799
sS'PF05057'
p3389
I6753
sS'PF05724'
p3390
I6801
sS'PF05721'
p3391
I6803
sS'PF05052'
p3392
I6804
sS'PF11798'
p3393
I12
sS'PF11793'
p3394
I16
sS'PF11792'
p3395
I17
sS'PF11794'
p3396
I101
sS'PF11420'
p3397
I22
sS'PF11422'
p3398
I23
sS'PF11429'
p3399
I24
sS'PF10063'
p3400
I6306
sS'PF09299'
p3401
I3481
sS'PF04238'
p3402
I5944
sS'PF04239'
p3403
I39
sS'PF01609'
p3404
I40
sS'PF04898'
p3405
I41
sS'PF04899'
p3406
I42
sS'PF04232'
p3407
I43
sS'PF04233'
p3408
I44
sS'PF04894'
p3409
I45
sS'PF04231'
p3410
I46
sS'PF04892'
p3411
I47
sS'PF04237'
p3412
I48
sS'PF04234'
p3413
I49
sS'PF04235'
p3414
I50
sS'PF07769'
p3415
I300
sS'PF08237'
p3416
I2302
sS'PF08234'
p3417
I53
sS'PF08235'
p3418
I304
sS'PF08230'
p3419
I2371
sS'PF07760'
p3420
I59
sS'PF07765'
p3421
I321
sS'PF08238'
p3422
I62
sS'PF08239'
p3423
I63
sS'PF09741'
p3424
I3487
sS'PF05949'
p3425
I66
sS'PF00435'
p3426
I3165
sS'PF05943'
p3427
I70
sS'PF08721'
p3428
I71
sS'PF08722'
p3429
I72
sS'PF05940'
p3430
I73
sS'PF05947'
p3431
I74
sS'PF05946'
p3432
I370
sS'PF05944'
p3433
I76
sS'PF04095'
p3434
I77
sS'PF04093'
p3435
I79
sS'PF04098'
p3436
I395
sS'PF09296'
p3437
I3492
sS'PF04046'
p3438
I89
sS'PF06421'
p3439
I2369
sS'PF01569'
p3440
I5738
sS'PF10938'
p3441
I88
sS'PF00216'
p3442
I5744
sS'PF07537'
p3443
I5745
sS'PF06490'
p3444
I99
sS'PF06491'
p3445
I100
sS'PF06496'
p3446
I102
sS'PF06497'
p3447
I103
sS'PF07244'
p3448
I5748
sS'PF00213'
p3449
I5749
sS'PF00265'
p3450
I109
sS'PF00264'
p3451
I110
sS'PF07547'
p3452
I4312
sS'PF00266'
p3453
I112
sS'PF07813'
p3454
I113
sS'PF00260'
p3455
I114
sS'PF00263'
p3456
I115
sS'PF07542'
p3457
I116
sS'PF02700'
p3458
I3505
sS'PF07549'
p3459
I119
sS'PF00268'
p3460
I120
sS'PF07819'
p3461
I765
sS'PF09348'
p3462
I3506
sS'PF06634'
p3463
I123
sS'PF06635'
p3464
I124
sS'PF06140'
p3465
I125
sS'PF06141'
p3466
I126
sS'PF06146'
p3467
I127
sS'PF06147'
p3468
I128
sS'PF06144'
p3469
I129
sS'PF06633'
p3470
I130
sS'PF00218'
p3471
I5752
sS'PF06148'
p3472
I132
sS'PF06149'
p3473
I133
sS'PF06638'
p3474
I134
sS'PF05121'
p3475
I4063
sS'PF05432'
p3476
I2798
sS'PF05123'
p3477
I4088
sS'PF05122'
p3478
I1111
sS'PF03512'
p3479
I143
sS'PF05437'
p3480
I3512
sS'PF03047'
p3481
I145
sS'PF03516'
p3482
I146
sS'PF03515'
p3483
I868
sS'PF01469'
p3484
I6110
sS'PF02605'
p3485
I1141
sS'PF08915'
p3486
I150
sS'PF09125'
p3487
I3515
sS'PF02353'
p3488
I153
sS'PF02350'
p3489
I5605
sS'PF08436'
p3490
I3525
sS'PF08430'
p3491
I5324
sS'PF08345'
p3492
I3530
sS'PF12312'
p3493
I175
sS'PF12313'
p3494
I176
sS'PF12314'
p3495
I177
sS'PF02649'
p3496
I1217
sS'PF02641'
p3497
I182
sS'PF02392'
p3498
I183
sS'PF02643'
p3499
I1259
sS'PF02390'
p3500
I185
sS'PF02397'
p3501
I186
sS'PF02647'
p3502
I187
sS'PF02646'
p3503
I188
sS'PF11658'
p3504
I1273
sS'PF11653'
p3505
I196
sS'PF02021'
p3506
I1357
sS'PF02022'
p3507
I203
sS'PF02028'
p3508
I206
sS'PF06068'
p3509
I4348
sS'PF10650'
p3510
I223
sS'PF10653'
p3511
I224
sS'PF10652'
p3512
I225
sS'PF10654'
p3513
I3711
sS'PF10657'
p3514
I227
sS'PF10658'
p3515
I228
sS'PF04394'
p3516
I231
sS'PF04397'
p3517
I232
sS'PF04391'
p3518
I233
sS'PF04390'
p3519
I234
sS'PF04393'
p3520
I235
sS'PF04392'
p3521
I236
sS'PF04399'
p3522
I237
sS'PF00892'
p3523
I242
sS'PF00893'
p3524
I243
sS'PF00890'
p3525
I244
sS'PF00723'
p3526
I245
sS'PF00724'
p3527
I246
sS'PF00725'
p3528
I247
sS'PF00728'
p3529
I248
sS'PF00899'
p3530
I249
sS'PF05554'
p3531
I1757
sS'PF05555'
p3532
I1760
sS'PF08538'
p3533
I254
sS'PF05552'
p3534
I255
sS'PF08535'
p3535
I256
sS'PF08534'
p3536
I257
sS'PF08537'
p3537
I1774
sS'PF08531'
p3538
I260
sS'PF05559'
p3539
I261
sS'PF08533'
p3540
I262
sS'PF08532'
p3541
I263
sS'PF01411'
p3542
I264
sS'PF04170'
p3543
I1802
sS'PF04173'
p3544
I1805
sS'PF04172'
p3545
I1808
sS'PF04175'
p3546
I1814
sS'PF04174'
p3547
I269
sS'PF01416'
p3548
I271
sS'PF01418'
p3549
I272
sS'PF10264'
p3550
I278
sS'PF10265'
p3551
I279
sS'PF09628'
p3552
I280
sS'PF09626'
p3553
I281
sS'PF09624'
p3554
I1874
sS'PF09625'
p3555
I1876
sS'PF09622'
p3556
I1877
sS'PF09623'
p3557
I1879
sS'PF09621'
p3558
I287
sS'PF00098'
p3559
I288
sS'PF00092'
p3560
I291
sS'PF00091'
p3561
I292
sS'PF00096'
p3562
I293
sS'PF00097'
p3563
I294
sS'PF08390'
p3564
I307
sS'PF08392'
p3565
I308
sS'PF08395'
p3566
I309
sS'PF08394'
p3567
I310
sS'PF08397'
p3568
I311
sS'PF10885'
p3569
I318
sS'PF07158'
p3570
I327
sS'PF07156'
p3571
I329
sS'PF07154'
p3572
I331
sS'PF07155'
p3573
I332
sS'PF07152'
p3574
I333
sS'PF07151'
p3575
I2188
sS'PF11139'
p3576
I339
sS'PF11138'
p3577
I340
sS'PF11131'
p3578
I343
sS'PF06821'
p3579
I353
sS'PF06823'
p3580
I5014
sS'PF06825'
p3581
I356
sS'PF06824'
p3582
I357
sS'PF06827'
p3583
I358
sS'PF06826'
p3584
I359
sS'PF02258'
p3585
I377
sS'PF08899'
p3586
I378
sS'PF08892'
p3587
I380
sS'PF02253'
p3588
I381
sS'PF08890'
p3589
I382
sS'PF08891'
p3590
I383
sS'PF02256'
p3591
I384
sS'PF08897'
p3592
I385
sS'PF02254'
p3593
I386
sS'PF02255'
p3594
I387
sS'PF10462'
p3595
I391
sS'PF10463'
p3596
I392
sS'PF10461'
p3597
I393
sS'PF03253'
p3598
I408
sS'PF03255'
p3599
I409
sS'PF03709'
p3600
I410
sS'PF03256'
p3601
I411
sS'PF03707'
p3602
I412
sS'PF03706'
p3603
I2723
sS'PF03705'
p3604
I414
sS'PF03704'
p3605
I415
sS'PF03703'
p3606
I2731
sS'PF03702'
p3607
I417
sS'PF03701'
p3608
I4121
sS'PF10792'
p3609
I2764
sS'PF10796'
p3610
I426
sS'PF10797'
p3611
I427
sS'PF00646'
p3612
I3555
sS'PF05708'
p3613
I6364
sS'PF00643'
p3614
I1630
sS'PF05704'
p3615
I2884
sS'PF05707'
p3616
I440
sS'PF07610'
p3617
I3558
sS'PF00641'
p3618
I3559
sS'PF12107'
p3619
I457
sS'PF12102'
p3620
I461
sS'PF12108'
p3621
I466
sS'PF01627'
p3622
I484
sS'PF01624'
p3623
I485
sS'PF01625'
p3624
I486
sS'PF01628'
p3625
I493
sS'PF01629'
p3626
I494
sS'PF08702'
p3627
I405
sS'PF08251'
p3628
I506
sS'PF08700'
p3629
I507
sS'PF08253'
p3630
I508
sS'PF08706'
p3631
I509
sS'PF08707'
p3632
I510
sS'PF08704'
p3633
I2243
sS'PF08705'
p3634
I442
sS'PF08258'
p3635
I1875
sS'PF08259'
p3636
I3302
sS'PF08708'
p3637
I3303
sS'PF05969'
p3638
I3306
sS'PF05968'
p3639
I518
sS'PF03548'
p3640
I5813
sS'PF04351'
p3641
I532
sS'PF04350'
p3642
I533
sS'PF04352'
p3643
I535
sS'PF09409'
p3644
I540
sS'PF03543'
p3645
I5820
sS'PF03544'
p3646
I5823
sS'PF07703'
p3647
I548
sS'PF07702'
p3648
I549
sS'PF07700'
p3649
I550
sS'PF07707'
p3650
I551
sS'PF07706'
p3651
I552
sS'PF07705'
p3652
I553
sS'PF07704'
p3653
I554
sS'PF07709'
p3654
I555
sS'PF07708'
p3655
I556
sS'PF04614'
p3656
I560
sS'PF04616'
p3657
I561
sS'PF04610'
p3658
I563
sS'PF04612'
p3659
I564
sS'PF04613'
p3660
I565
sS'PF08179'
p3661
I6786
sS'PF04619'
p3662
I1106
sS'PF07831'
p3663
I581
sS'PF07833'
p3664
I582
sS'PF07832'
p3665
I583
sS'PF07835'
p3666
I584
sS'PF00289'
p3667
I3709
sS'PF00288'
p3668
I3710
sS'PF00285'
p3669
I587
sS'PF00284'
p3670
I588
sS'PF00283'
p3671
I589
sS'PF00282'
p3672
I590
sS'PF00281'
p3673
I591
sS'PF06619'
p3674
I594
sS'PF06616'
p3675
I595
sS'PF06615'
p3676
I596
sS'PF06612'
p3677
I597
sS'PF06613'
p3678
I598
sS'PF06610'
p3679
I599
sS'PF06611'
p3680
I600
sS'PF03067'
p3681
I601
sS'PF03065'
p3682
I602
sS'PF03062'
p3683
I603
sS'PF03063'
p3684
I604
sS'PF03060'
p3685
I605
sS'PF03061'
p3686
I606
sS'PF03068'
p3687
I607
sS'PF03069'
p3688
I608
sS'PF00392'
p3689
I3596
sS'PF00395'
p3690
I3597
sS'PF00466'
p3691
I3598
sS'PF00397'
p3692
I3599
sS'PF01436'
p3693
I6616
sS'PF04824'
p3694
I614
sS'PF09317'
p3695
I615
sS'PF03390'
p3696
I616
sS'PF04820'
p3697
I1225
sS'PF12482'
p3698
I618
sS'PF12483'
p3699
I619
sS'PF02623'
p3700
I640
sS'PF02622'
p3701
I641
sS'PF02621'
p3702
I642
sS'PF02620'
p3703
I643
sS'PF02627'
p3704
I644
sS'PF02626'
p3705
I645
sS'PF02625'
p3706
I646
sS'PF02624'
p3707
I647
sS'PF02629'
p3708
I648
sS'PF02628'
p3709
I649
sS'PF03934'
p3710
I660
sS'PF03935'
p3711
I661
sS'PF03936'
p3712
I662
sS'PF03937'
p3713
I663
sS'PF03932'
p3714
I664
sS'PF03938'
p3715
I665
sS'PF02233'
p3716
I5851
sS'PF00916'
p3717
I680
sS'PF10639'
p3718
I681
sS'PF00912'
p3719
I683
sS'PF00910'
p3720
I3384
sS'PF10633'
p3721
I685
sS'PF10632'
p3722
I686
sS'PF10637'
p3723
I687
sS'PF10636'
p3724
I688
sS'PF10635'
p3725
I689
sS'PF10634'
p3726
I690
sS'PF05393'
p3727
I692
sS'PF05391'
p3728
I693
sS'PF05398'
p3729
I697
sS'PF01409'
p3730
I512
sS'PF04379'
p3731
I699
sS'PF04378'
p3732
I700
sS'PF04377'
p3733
I701
sS'PF04376'
p3734
I702
sS'PF04375'
p3735
I703
sS'PF04373'
p3736
I704
sS'PF04371'
p3737
I706
sS'PF09424'
p3738
I708
sS'PF09425'
p3739
I709
sS'PF09394'
p3740
I710
sS'PF09392'
p3741
I711
sS'PF09393'
p3742
I712
sS'PF09390'
p3743
I713
sS'PF09423'
p3744
I714
sS'PF00708'
p3745
I717
sS'PF00709'
p3746
I718
sS'PF00879'
p3747
I4618
sS'PF00874'
p3748
I722
sS'PF00875'
p3749
I723
sS'PF00700'
p3750
I724
sS'PF00701'
p3751
I725
sS'PF00707'
p3752
I726
sS'PF00872'
p3753
I727
sS'PF00873'
p3754
I728
sS'PF05578'
p3755
I729
sS'PF05576'
p3756
I730
sS'PF05577'
p3757
I593
sS'PF05575'
p3758
I732
sS'PF05573'
p3759
I733
sS'PF05570'
p3760
I734
sS'PF01479'
p3761
I738
sS'PF01478'
p3762
I739
sS'PF01473'
p3763
I744
sS'PF01472'
p3764
I745
sS'PF04111'
p3765
I4395
sS'PF01470'
p3766
I747
sS'PF01476'
p3767
I749
sS'PF01475'
p3768
I750
sS'PF01474'
p3769
I751
sS'PF09648'
p3770
I752
sS'PF09649'
p3771
I753
sS'PF10248'
p3772
I754
sS'PF09640'
p3773
I756
sS'PF10243'
p3774
I4784
sS'PF09642'
p3775
I758
sS'PF09643'
p3776
I759
sS'PF10246'
p3777
I760
sS'PF10247'
p3778
I761
sS'PF01523'
p3779
I4767
sS'PF00114'
p3780
I6369
sS'PF08117'
p3781
I794
sS'PF08116'
p3782
I795
sS'PF08115'
p3783
I796
sS'PF08114'
p3784
I797
sS'PF08113'
p3785
I798
sS'PF08112'
p3786
I5066
sS'PF08111'
p3787
I800
sS'PF08110'
p3788
I801
sS'PF07130'
p3789
I802
sS'PF07136'
p3790
I803
sS'PF06842'
p3791
I804
sS'PF06847'
p3792
I807
sS'PF06845'
p3793
I808
sS'PF06844'
p3794
I809
sS'PF11110'
p3795
I810
sS'PF06849'
p3796
I811
sS'PF01899'
p3797
I828
sS'PF01895'
p3798
I830
sS'PF01894'
p3799
I831
sS'PF01896'
p3800
I832
sS'PF01891'
p3801
I5986
sS'PF01890'
p3802
I834
sS'PF01893'
p3803
I5193
sS'PF06267'
p3804
I850
sS'PF06265'
p3805
I852
sS'PF06264'
p3806
I853
sS'PF06262'
p3807
I854
sS'PF06260'
p3808
I855
sS'PF06268'
p3809
I856
sS'PF01607'
p3810
I860
sS'PF10400'
p3811
I861
sS'PF11806'
p3812
I862
sS'PF11804'
p3813
I1439
sS'PF10404'
p3814
I864
sS'PF11801'
p3815
I865
sS'PF11808'
p3816
I867
sS'PF03729'
p3817
I879
sS'PF03239'
p3818
I880
sS'PF03721'
p3819
I881
sS'PF03720'
p3820
I882
sS'PF03230'
p3821
I883
sS'PF03725'
p3822
I884
sS'PF03724'
p3823
I885
sS'PF03235'
p3824
I886
sS'PF03726'
p3825
I887
sS'PF05763'
p3826
I892
sS'PF05762'
p3827
I893
sS'PF05766'
p3828
I895
sS'PF05768'
p3829
I896
sS'PF03331'
p3830
I6073
sS'PF12296'
p3831
I899
sS'PF12291'
p3832
I900
sS'PF12299'
p3833
I902
sS'PF11755'
p3834
I905
sS'PF11752'
p3835
I906
sS'PF04135'
p3836
I5158
sS'PF04134'
p3837
I5161
sS'PF12121'
p3838
I920
sS'PF12123'
p3839
I921
sS'PF12129'
p3840
I924
sS'PF01323'
p3841
I999
sS'PF01322'
p3842
I928
sS'PF05187'
p3843
I929
sS'PF05185'
p3844
I930
sS'PF05184'
p3845
I931
sS'PF01453'
p3846
I933
sS'PF05181'
p3847
I934
sS'PF05189'
p3848
I6012
sS'PF05188'
p3849
I942
sS'PF00106'
p3850
I947
sS'PF01640'
p3851
I6037
sS'PF01641'
p3852
I950
sS'PF01642'
p3853
I951
sS'PF07731'
p3854
I952
sS'PF01645'
p3855
I953
sS'PF01648'
p3856
I954
sS'PF01649'
p3857
I955
sS'PF01458'
p3858
I958
sS'PF09099'
p3859
I960
sS'PF09098'
p3860
I961
sS'PF09095'
p3861
I962
sS'PF01936'
p3862
I3639
sS'PF09093'
p3863
I965
sS'PF00324'
p3864
I1483
sS'PF08278'
p3865
I969
sS'PF08279'
p3866
I970
sS'PF05988'
p3867
I974
sS'PF08272'
p3868
I975
sS'PF08273'
p3869
I6131
sS'PF05985'
p3870
I6136
sS'PF08271'
p3871
I6140
sS'PF07446'
p3872
I980
sS'PF08274'
p3873
I981
sS'PF08275'
p3874
I1386
sS'PF07447'
p3875
I5408
sS'PF00320'
p3876
I990
sS'PF00322'
p3877
I996
sS'PF09239'
p3878
I5898
sS'PF07449'
p3879
I1302
sS'PF04585'
p3880
I1005
sS'PF04586'
p3881
I1006
sS'PF04587'
p3882
I1007
sS'PF04582'
p3883
I1008
sS'PF04583'
p3884
I1009
sS'PF04588'
p3885
I6305
sS'PF04589'
p3886
I6307
sS'PF10184'
p3887
I1012
sS'PF10187'
p3888
I1013
sS'PF10186'
p3889
I1014
sS'PF10183'
p3890
I1015
sS'PF07729'
p3891
I1018
sS'PF07728'
p3892
I1019
sS'PF00119'
p3893
I1020
sS'PF00118'
p3894
I1021
sS'PF00117'
p3895
I1022
sS'PF07724'
p3896
I1023
sS'PF00115'
p3897
I1024
sS'PF07726'
p3898
I1025
sS'PF07721'
p3899
I1026
sS'PF07720'
p3900
I1027
sS'PF07723'
p3901
I1028
sS'PF07722'
p3902
I1029
sS'PF09543'
p3903
I5906
sS'PF06458'
p3904
I6684
sS'PF06459'
p3905
I6696
sS'PF06988'
p3906
I6421
sS'PF06989'
p3907
I6425
sS'PF06986'
p3908
I1038
sS'PF06455'
p3909
I1039
sS'PF06457'
p3910
I1040
sS'PF06450'
p3911
I1041
sS'PF06451'
p3912
I1042
sS'PF06980'
p3913
I1043
sS'PF09547'
p3914
I1053
sS'PF04632'
p3915
I6468
sS'PF04630'
p3916
I1056
sS'PF09546'
p3917
I5911
sS'PF10989'
p3918
I5854
sS'PF09544'
p3919
I5913
sS'PF10983'
p3920
I6504
sS'PF07589'
p3921
I1067
sS'PF08544'
p3922
I5914
sS'PF07859'
p3923
I1069
sS'PF07858'
p3924
I1070
sS'PF08545'
p3925
I5915
sS'PF07581'
p3926
I1072
sS'PF07583'
p3927
I1073
sS'PF07582'
p3928
I1074
sS'PF07585'
p3929
I1075
sS'PF07584'
p3930
I1076
sS'PF07586'
p3931
I1077
sS'PF06679'
p3932
I1078
sS'PF08011'
p3933
I1080
sS'PF06671'
p3934
I6550
sS'PF06672'
p3935
I4634
sS'PF06675'
p3936
I4682
sS'PF06676'
p3937
I1087
sS'PF06677'
p3938
I6572
sS'PF03000'
p3939
I1089
sS'PF03002'
p3940
I1090
sS'PF03004'
p3941
I1091
sS'PF08542'
p3942
I5920
sS'PF03006'
p3943
I1093
sS'PF03007'
p3944
I1094
sS'PF03008'
p3945
I1095
sS'PF03009'
p3946
I1096
sS'PF08543'
p3947
I5921
sS'PF10995'
p3948
I5725
sS'PF12460'
p3949
I1110
sS'PF06186'
p3950
I1113
sS'PF06187'
p3951
I1114
sS'PF06185'
p3952
I1115
sS'PF06182'
p3953
I1116
sS'PF06183'
p3954
I1117
sS'PF06180'
p3955
I1118
sS'PF06181'
p3956
I1119
sS'PF06189'
p3957
I1121
sS'PF02609'
p3958
I1137
sS'PF02608'
p3959
I1138
sS'PF02359'
p3960
I1139
sS'PF08918'
p3961
I1140
sS'PF02357'
p3962
I148
sS'PF02604'
p3963
I1142
sS'PF02607'
p3964
I1143
sS'PF02606'
p3965
I1144
sS'PF02601'
p3966
I1145
sS'PF02600'
p3967
I1146
sS'PF02603'
p3968
I2850
sS'PF02602'
p3969
I162
sS'PF00227'
p3970
I6003
sS'PF03918'
p3971
I1154
sS'PF03916'
p3972
I1155
sS'PF03917'
p3973
I1156
sS'PF03912'
p3974
I1158
sS'PF03913'
p3975
I1159
sS'PF03911'
p3976
I1160
sS'PF01566'
p3977
I5729
sS'PF10615'
p3978
I1167
sS'PF10614'
p3979
I1168
sS'PF10617'
p3980
I1169
sS'PF10616'
p3981
I1170
sS'PF10611'
p3982
I1171
sS'PF10613'
p3983
I1172
sS'PF10612'
p3984
I394
sS'PF10619'
p3985
I1177
sS'PF00931'
p3986
I1179
sS'PF00930'
p3987
I1180
sS'PF00933'
p3988
I1181
sS'PF00932'
p3989
I432
sS'PF00935'
p3990
I1183
sS'PF00934'
p3991
I1184
sS'PF00936'
p3992
I1185
sS'PF00939'
p3993
I1186
sS'PF05378'
p3994
I1188
sS'PF05379'
p3995
I4539
sS'PF05374'
p3996
I1190
sS'PF05377'
p3997
I1191
sS'PF05370'
p3998
I1192
sS'PF05371'
p3999
I1193
sS'PF05372'
p4000
I1194
sS'PF05373'
p4001
I3682
sS'PF04359'
p4002
I1196
sS'PF04358'
p4003
I5962
sS'PF01189'
p4004
I1198
sS'PF01188'
p4005
I1199
sS'PF09400'
p4006
I529
sS'PF01183'
p4007
I1204
sS'PF01182'
p4008
I1205
sS'PF04353'
p4009
I1206
sS'PF01180'
p4010
I1207
sS'PF04355'
p4011
I537
sS'PF04354'
p4012
I538
sS'PF04357'
p4013
I1210
sS'PF01184'
p4014
I1211
sS'PF00856'
p4015
I1212
sS'PF00857'
p4016
I1213
sS'PF00854'
p4017
I1214
sS'PF00850'
p4018
I1215
sS'PF00851'
p4019
I1216
sS'PF05512'
p4020
I638
sS'PF09662'
p4021
I1234
sS'PF09663'
p4022
I1235
sS'PF09660'
p4023
I1236
sS'PF09661'
p4024
I1237
sS'PF09666'
p4025
I1238
sS'PF09664'
p4026
I1239
sS'PF09665'
p4027
I1240
sS'PF09669'
p4028
I1243
sS'PF00580'
p4029
I1248
sS'PF00581'
p4030
I1249
sS'PF00582'
p4031
I1250
sS'PF00583'
p4032
I1251
sS'PF00584'
p4033
I1252
sS'PF00585'
p4034
I1253
sS'PF00586'
p4035
I1254
sS'PF00587'
p4036
I1255
sS'PF00588'
p4037
I1256
sS'PF00589'
p4038
I1257
sS'PF11564'
p4039
I1260
sS'PF11565'
p4040
I1261
sS'PF01327'
p4041
I1277
sS'PF01326'
p4042
I1278
sS'PF01325'
p4043
I1279
sS'PF01456'
p4044
I922
sS'PF01451'
p4045
I1334
sS'PF01450'
p4046
I1341
sS'PF01321'
p4047
I1283
sS'PF04138'
p4048
I1289
sS'PF01329'
p4049
I1290
sS'PF01328'
p4050
I1291
sS'PF07444'
p4051
I1292
sS'PF07445'
p4052
I5387
sS'PF00326'
p4053
I1294
sS'PF00327'
p4054
I1295
sS'PF07440'
p4055
I1296
sS'PF07441'
p4056
I1297
sS'PF07442'
p4057
I1298
sS'PF07119'
p4058
I6732
sS'PF00328'
p4059
I1301
sS'PF00329'
p4060
I1004
sS'PF08130'
p4061
I1304
sS'PF08133'
p4062
I1305
sS'PF01142'
p4063
I6450
sS'PF11177'
p4064
I1307
sS'PF08134'
p4065
I1308
sS'PF08137'
p4066
I1309
sS'PF11174'
p4067
I3950
sS'PF08139'
p4068
I1311
sS'PF06868'
p4069
I1098
sS'PF09178'
p4070
I2773
sS'PF06865'
p4071
I1320
sS'PF06864'
p4072
I1321
sS'PF06866'
p4073
I1323
sS'PF06863'
p4074
I1325
sS'PF06862'
p4075
I1107
sS'PF09176'
p4076
I1344
sS'PF06241'
p4077
I1350
sS'PF06240'
p4078
I1351
sS'PF06243'
p4079
I1352
sS'PF06242'
p4080
I1353
sS'PF06245'
p4081
I1354
sS'PF06249'
p4082
I1356
sS'PF00245'
p4083
I6448
sS'PF09989'
p4084
I1363
sS'PF09988'
p4085
I1364
sS'PF09983'
p4086
I1368
sS'PF09982'
p4087
I1369
sS'PF09981'
p4088
I1370
sS'PF09980'
p4089
I1371
sS'PF09987'
p4090
I2830
sS'PF09986'
p4091
I1373
sS'PF09985'
p4092
I1374
sS'PF09984'
p4093
I1375
sS'PF11821'
p4094
I1490
sS'PF10428'
p4095
I1497
sS'PF11829'
p4096
I948
sS'PF10423'
p4097
I3381
sS'PF10426'
p4098
I1383
sS'PF03743'
p4099
I1388
sS'PF03742'
p4100
I1389
sS'PF03741'
p4101
I1390
sS'PF03216'
p4102
I1336
sS'PF03211'
p4103
I1603
sS'PF03746'
p4104
I2666
sS'PF03745'
p4105
I1394
sS'PF03212'
p4106
I1395
sS'PF03749'
p4107
I2725
sS'PF03748'
p4108
I2745
sS'PF03219'
p4109
I5388
sS'PF02801'
p4110
I3693
sS'PF02800'
p4111
I3694
sS'PF08863'
p4112
I3695
sS'PF02806'
p4113
I3696
sS'PF09298'
p4114
I3482
sS'PF08861'
p4115
I3697
sS'PF00199'
p4116
I5969
sS'PF05745'
p4117
I1417
sS'PF05746'
p4118
I1418
sS'PF05742'
p4119
I1420
sS'PF05906'
p4120
I5971
sS'PF02358'
p4121
I1423
sS'PF08869'
p4122
I3703
sS'PF11777'
p4123
I1438
sS'PF02167'
p4124
I3211
sS'PF02162'
p4125
I1450
sS'PF02163'
p4126
I1451
sS'PF12143'
p4127
I1999
sS'PF12142'
p4128
I1453
sS'PF12147'
p4129
I2877
sS'PF12146'
p4130
I2014
sS'PF02355'
p4131
I1465
sS'PF11489'
p4132
I3875
sS'PF01668'
p4133
I1480
sS'PF04839'
p4134
I1481
sS'PF01663'
p4135
I1484
sS'PF01661'
p4136
I1485
sS'PF04830'
p4137
I1486
sS'PF01667'
p4138
I1487
sS'PF04832'
p4139
I1488
sS'PF00325'
p4140
I1293
sS'PF10097'
p4141
I3716
sS'PF09281'
p4142
I1501
sS'PF09282'
p4143
I3718
sS'PF09285'
p4144
I3721
sS'PF09290'
p4145
I3490
sS'PF09286'
p4146
I3722
sS'PF01575'
p4147
I5991
sS'PF10167'
p4148
I1538
sS'PF10162'
p4149
I1539
sS'PF00139'
p4150
I1541
sS'PF01124'
p4151
I6331
sS'PF00130'
p4152
I1548
sS'PF00133'
p4153
I1549
sS'PF00132'
p4154
I1550
sS'PF00135'
p4155
I1551
sS'PF01127'
p4156
I3733
sS'PF00137'
p4157
I1553
sS'PF00136'
p4158
I1554
sS'PF00221'
p4159
I5998
sS'PF01126'
p4160
I6355
sS'PF04953'
p4161
I2154
sS'PF07503'
p4162
I6000
sS'PF04952'
p4163
I3736
sS'PF04659'
p4164
I1566
sS'PF04951'
p4165
I1567
sS'PF04650'
p4166
I1570
sS'PF04652'
p4167
I2569
sS'PF04654'
p4168
I1573
sS'PF04655'
p4169
I1574
sS'PF04657'
p4170
I1576
sS'PF07875'
p4171
I1577
sS'PF07874'
p4172
I1578
sS'PF07877'
p4173
I1579
sS'PF07876'
p4174
I1580
sS'PF07871'
p4175
I1581
sS'PF07870'
p4176
I1582
sS'PF07873'
p4177
I1583
sS'PF07872'
p4178
I1584
sS'PF00226'
p4179
I6004
sS'PF07879'
p4180
I1587
sS'PF07878'
p4181
I2609
sS'PF02732'
p4182
I3741
sS'PF07508'
p4183
I6006
sS'PF03215'
p4184
I1594
sS'PF03214'
p4185
I1595
sS'PF02739'
p4186
I3746
sS'PF03028'
p4187
I1599
sS'PF03740'
p4188
I1391
sS'PF09353'
p4189
I6512
sS'PF03022'
p4190
I1602
sS'PF08908'
p4191
I1392
sS'PF03020'
p4192
I1604
sS'PF03021'
p4193
I1605
sS'PF08909'
p4194
I1606
sS'PF03744'
p4195
I1610
sS'PF06476'
p4196
I1612
sS'PF08904'
p4197
I1613
sS'PF06474'
p4198
I1614
sS'PF06475'
p4199
I1615
sS'PF06472'
p4200
I1616
sS'PF06470'
p4201
I2802
sS'PF06471'
p4202
I762
sS'PF02346'
p4203
I1176
sS'PF02347'
p4204
I1624
sS'PF02616'
p4205
I1626
sS'PF08901'
p4206
I1401
sS'PF07307'
p4207
I1628
sS'PF07305'
p4208
I1629
sS'PF07303'
p4209
I1631
sS'PF02342'
p4210
I1632
sS'PF07301'
p4211
I1633
sS'PF07300'
p4212
I1634
sS'PF08734'
p4213
I6644
sS'PF08903'
p4214
I1636
sS'PF07309'
p4215
I2900
sS'PF07308'
p4216
I1640
sS'PF06653'
p4217
I5406
sS'PF03686'
p4218
I1654
sS'PF03684'
p4219
I1656
sS'PF03685'
p4220
I1657
sS'PF03682'
p4221
I1658
sS'PF03683'
p4222
I1659
sS'PF03681'
p4223
I1660
sS'PF02379'
p4224
I3086
sS'PF02378'
p4225
I1662
sS'PF02371'
p4226
I1669
sS'PF02370'
p4227
I1670
sS'PF02373'
p4228
I3536
sS'PF02375'
p4229
I1673
sS'PF02374'
p4230
I1674
sS'PF08937'
p4231
I1675
sS'PF08936'
p4232
I1676
sS'PF03979'
p4233
I1679
sS'PF03971'
p4234
I1681
sS'PF03972'
p4235
I1682
sS'PF03974'
p4236
I1683
sS'PF03975'
p4237
I1684
sS'PF03976'
p4238
I1685
sS'PF03977'
p4239
I1686
sS'PF02083'
p4240
I1687
sS'PF02082'
p4241
I1688
sS'PF02081'
p4242
I1689
sS'PF02080'
p4243
I1690
sS'PF02086'
p4244
I1691
sS'PF02085'
p4245
I1692
sS'PF08893'
p4246
I2484
sS'PF02883'
p4247
I1712
sS'PF02882'
p4248
I1713
sS'PF02881'
p4249
I1714
sS'PF02880'
p4250
I1715
sS'PF02887'
p4251
I1716
sS'PF02885'
p4252
I1717
sS'PF02884'
p4253
I1718
sS'PF00959'
p4254
I1719
sS'PF00958'
p4255
I1720
sS'PF05350'
p4256
I1721
sS'PF00953'
p4257
I1722
sS'PF00952'
p4258
I1723
sS'PF00951'
p4259
I1724
sS'PF00950'
p4260
I1725
sS'PF00957'
p4261
I1726
sS'PF00956'
p4262
I1727
sS'PF08823'
p4263
I3453
sS'PF05688'
p4264
I1729
sS'PF05681'
p4265
I1736
sS'PF05682'
p4266
I1737
sS'PF05683'
p4267
I1738
sS'PF05684'
p4268
I3467
sS'PF05685'
p4269
I3469
sS'PF05686'
p4270
I5315
sS'PF09463'
p4271
I1743
sS'PF09465'
p4272
I1744
sS'PF09467'
p4273
I1746
sS'PF00830'
p4274
I1748
sS'PF00831'
p4275
I1749
sS'PF00832'
p4276
I1750
sS'PF00833'
p4277
I1751
sS'PF00834'
p4278
I1752
sS'PF00837'
p4279
I1753
sS'PF00838'
p4280
I1754
sS'PF00839'
p4281
I1755
sS'PF05532'
p4282
I1756
sS'PF05531'
p4283
I1758
sS'PF05534'
p4284
I1759
sS'PF08135'
p4285
I1765
sS'PF09689'
p4286
I1766
sS'PF09684'
p4287
I1767
sS'PF09686'
p4288
I1768
sS'PF09687'
p4289
I1769
sS'PF09680'
p4290
I1770
sS'PF09681'
p4291
I1771
sS'PF09682'
p4292
I1772
sS'PF04333'
p4293
I1786
sS'PF04332'
p4294
I1787
sS'PF04331'
p4295
I1788
sS'PF04330'
p4296
I1789
sS'PF04337'
p4297
I1790
sS'PF04336'
p4298
I1791
sS'PF04335'
p4299
I1792
sS'PF04334'
p4300
I1793
sS'PF04339'
p4301
I1794
sS'PF04338'
p4302
I1795
sS'PF07682'
p4303
I1796
sS'PF07683'
p4304
I1797
sS'PF07680'
p4305
I1798
sS'PF07681'
p4306
I1799
sS'PF07686'
p4307
I1800
sS'PF07687'
p4308
I1801
sS'PF07685'
p4309
I220
sS'PF07688'
p4310
I1803
sS'PF07689'
p4311
I1804
sS'PF08480'
p4312
I1806
sS'PF08483'
p4313
I1807
sS'PF08482'
p4314
I3869
sS'PF08485'
p4315
I1809
sS'PF05821'
p4316
I3871
sS'PF08339'
p4317
I3873
sS'PF08338'
p4318
I1812
sS'PF08489'
p4319
I1813
sS'PF08336'
p4320
I3876
sS'PF08136'
p4321
I1310
sS'PF08334'
p4322
I1816
sS'PF08333'
p4323
I1817
sS'PF08332'
p4324
I3878
sS'PF08331'
p4325
I1819
sS'PF01301'
p4326
I1831
sS'PF01300'
p4327
I1832
sS'PF01303'
p4328
I1833
sS'PF01305'
p4329
I1834
sS'PF04488'
p4330
I1835
sS'PF01306'
p4331
I1836
sS'PF04485'
p4332
I1837
sS'PF01308'
p4333
I1838
sS'PF04486'
p4334
I1839
sS'PF04481'
p4335
I1840
sS'PF04480'
p4336
I1841
sS'PF04483'
p4337
I1842
sS'PF04482'
p4338
I1843
sS'PF00308'
p4339
I1847
sS'PF00309'
p4340
I1848
sS'PF07466'
p4341
I3972
sS'PF07467'
p4342
I4963
sS'PF07464'
p4343
I1851
sS'PF00305'
p4344
I3980
sS'PF07462'
p4345
I3982
sS'PF07463'
p4346
I1854
sS'PF07460'
p4347
I3987
sS'PF00301'
p4348
I1856
sS'PF08159'
p4349
I1857
sS'PF11158'
p4350
I1858
sS'PF08152'
p4351
I1859
sS'PF08157'
p4352
I1860
sS'PF08154'
p4353
I1346
sS'PF10396'
p4354
I1880
sS'PF10397'
p4355
I1881
sS'PF10391'
p4356
I1882
sS'PF10393'
p4357
I1884
sS'PF10399'
p4358
I1886
sS'PF06228'
p4359
I1899
sS'PF06220'
p4360
I1895
sS'PF06226'
p4361
I1897
sS'PF06224'
p4362
I1898
sS'PF11841'
p4363
I1901
sS'PF11846'
p4364
I1902
sS'PF11845'
p4365
I1903
sS'PF11844'
p4366
I1904
sS'PF01256'
p4367
I3786
sS'PF03764'
p4368
I1917
sS'PF03767'
p4369
I1918
sS'PF01255'
p4370
I3787
sS'PF03763'
p4371
I1920
sS'PF01706'
p4372
I3788
sS'PF01701'
p4373
I3789
sS'PF04556'
p4374
I1925
sS'PF01702'
p4375
I1499
sS'PF00654'
p4376
I3792
sS'PF07603'
p4377
I3793
sS'PF00656'
p4378
I3794
sS'PF01947'
p4379
I1937
sS'PF01946'
p4380
I1938
sS'PF01944'
p4381
I2962
sS'PF01943'
p4382
I1940
sS'PF01941'
p4383
I1941
sS'PF01940'
p4384
I1942
sS'PF01949'
p4385
I1944
sS'PF01948'
p4386
I1945
sS'PF07972'
p4387
I5269
sS'PF00653'
p4388
I4318
sS'PF11712'
p4389
I1950
sS'PF11716'
p4390
I4786
sS'PF11715'
p4391
I1952
sS'PF11718'
p4392
I1954
sS'PF12164'
p4393
I2017
sS'PF12163'
p4394
I1966
sS'PF12162'
p4395
I5722
sS'PF12169'
p4396
I1972
sS'PF02419'
p4397
I1978
sS'PF02148'
p4398
I4796
sS'PF02146'
p4399
I1981
sS'PF02415'
p4400
I1982
sS'PF02416'
p4401
I1983
sS'PF02417'
p4402
I1984
sS'PF02142'
p4403
I4900
sS'PF02411'
p4404
I4078
sS'PF02140'
p4405
I2809
sS'PF02413'
p4406
I4098
sS'PF08495'
p4407
I2069
sS'PF04816'
p4408
I1998
sS'PF04817'
p4409
I5253
sS'PF04810'
p4410
I2002
sS'PF04818'
p4411
I992
sS'PF08660'
p4412
I3813
sS'PF05697'
p4413
I2013
sS'PF08662'
p4414
I2016
sS'PF09473'
p4415
I2020
sS'PF09472'
p4416
I2021
sS'PF03559'
p4417
I6061
sS'PF10005'
p4418
I2026
sS'PF10006'
p4419
I2027
sS'PF10007'
p4420
I2028
sS'PF10000'
p4421
I2029
sS'PF10001'
p4422
I2030
sS'PF10002'
p4423
I2031
sS'PF10003'
p4424
I2032
sS'PF10008'
p4425
I2034
sS'PF10009'
p4426
I2035
sS'PF09479'
p4427
I2046
sS'PF09478'
p4428
I2048
sS'PF08754'
p4429
I6201
sS'PF09147'
p4430
I2059
sS'PF09146'
p4431
I2060
sS'PF09142'
p4432
I2064
sS'PF09140'
p4433
I2158
sS'PF00382'
p4434
I3827
sS'PF09148'
p4435
I5314
sS'PF10149'
p4436
I2812
sS'PF00152'
p4437
I2074
sS'PF00151'
p4438
I2075
sS'PF00150'
p4439
I2076
sS'PF00157'
p4440
I2077
sS'PF00156'
p4441
I2078
sS'PF00155'
p4442
I2079
sS'PF00154'
p4443
I2080
sS'PF10141'
p4444
I2081
sS'PF00159'
p4445
I5325
sS'PF10142'
p4446
I5327
sS'PF10145'
p4447
I2084
sS'PF10144'
p4448
I2085
sS'PF10147'
p4449
I2086
sS'PF10146'
p4450
I2087
sS'PF04672'
p4451
I2096
sS'PF04673'
p4452
I2097
sS'PF04670'
p4453
I5389
sS'PF04671'
p4454
I5391
sS'PF04677'
p4455
I2100
sS'PF04675'
p4456
I2101
sS'PF04678'
p4457
I6192
sS'PF04679'
p4458
I5409
sS'PF10311'
p4459
I5631
sS'PF10312'
p4460
I5691
sS'PF00389'
p4461
I3836
sS'PF07896'
p4462
I2119
sS'PF07895'
p4463
I2120
sS'PF07892'
p4464
I2121
sS'PF07096'
p4465
I2125
sS'PF07095'
p4466
I2126
sS'PF07091'
p4467
I2127
sS'PF07090'
p4468
I2128
sS'PF07099'
p4469
I2129
sS'PF07098'
p4470
I2130
sS'PF06411'
p4471
I2132
sS'PF06412'
p4472
I2133
sS'PF06413'
p4473
I2134
sS'PF06414'
p4474
I2135
sS'PF06415'
p4475
I2136
sS'PF04835'
p4476
I2137
sS'PF06418'
p4477
I2138
sS'PF04837'
p4478
I2140
sS'PF07321'
p4479
I2144
sS'PF07320'
p4480
I2145
sS'PF07323'
p4481
I2146
sS'PF12423'
p4482
I2147
sS'PF07324'
p4483
I1052
sS'PF07454'
p4484
I6404
sS'PF03882'
p4485
I6072
sS'PF02313'
p4486
I2159
sS'PF08952'
p4487
I2160
sS'PF02311'
p4488
I2161
sS'PF02310'
p4489
I2162
sS'PF02317'
p4490
I2163
sS'PF02316'
p4491
I2164
sS'PF02315'
p4492
I2165
sS'PF02319'
p4493
I2166
sS'PF08958'
p4494
I2167
sS'PF12397'
p4495
I2168
sS'PF03334'
p4496
I6076
sS'PF03335'
p4497
I6077
sS'PF09077'
p4498
I6155
sS'PF07453'
p4499
I6410
sS'PF00975'
p4500
I2192
sS'PF00977'
p4501
I2193
sS'PF00976'
p4502
I2194
sS'PF00970'
p4503
I2195
sS'PF00978'
p4504
I2196
sS'PF05331'
p4505
I2198
sS'PF05336'
p4506
I2199
sS'PF05339'
p4507
I2201
sS'PF03404'
p4508
I2202
sS'PF03405'
p4509
I2203
sS'PF03950'
p4510
I2204
sS'PF03951'
p4511
I2205
sS'PF03956'
p4512
I2206
sS'PF03401'
p4513
I2207
sS'PF03403'
p4514
I2208
sS'PF03958'
p4515
I2211
sS'PF03959'
p4516
I6297
sS'PF09448'
p4517
I2217
sS'PF09338'
p4518
I2218
sS'PF09339'
p4519
I2219
sS'PF09442'
p4520
I2220
sS'PF09335'
p4521
I2221
sS'PF09440'
p4522
I2222
sS'PF09337'
p4523
I2223
sS'PF09330'
p4524
I2224
sS'PF09445'
p4525
I2226
sS'PF00818'
p4526
I2228
sS'PF00813'
p4527
I2232
sS'PF00810'
p4528
I2233
sS'PF00811'
p4529
I2234
sS'PF00816'
p4530
I2235
sS'PF00817'
p4531
I2236
sS'PF00814'
p4532
I2237
sS'PF00815'
p4533
I2238
sS'PF08846'
p4534
I4346
sS'PF11528'
p4535
I6510
sS'PF11529'
p4536
I1870
sS'PF08848'
p4537
I4351
sS'PF04319'
p4538
I2261
sS'PF01149'
p4539
I2262
sS'PF01148'
p4540
I2263
sS'PF04315'
p4541
I2264
sS'PF04314'
p4542
I2265
sS'PF01145'
p4543
I2266
sS'PF01144'
p4544
I2267
sS'PF04311'
p4545
I2268
sS'PF04310'
p4546
I2269
sS'PF04313'
p4547
I2270
sS'PF04312'
p4548
I2271
sS'PF07669'
p4549
I2274
sS'PF07664'
p4550
I2276
sS'PF07665'
p4551
I2277
sS'PF07660'
p4552
I2279
sS'PF07661'
p4553
I2280
sS'PF07662'
p4554
I6634
sS'PF07663'
p4555
I2282
sS'PF05806'
p4556
I2290
sS'PF08310'
p4557
I2291
sS'PF05803'
p4558
I2293
sS'PF08317'
p4559
I330
sS'PF01499'
p4560
I2304
sS'PF01498'
p4561
I2305
sS'PF01368'
p4562
I6733
sS'PF01363'
p4563
I5937
sS'PF01490'
p4564
I2310
sS'PF01361'
p4565
I2311
sS'PF01367'
p4566
I2313
sS'PF01366'
p4567
I5487
sS'PF01497'
p4568
I6751
sS'PF01496'
p4569
I6752
sS'PF00368'
p4570
I2317
sS'PF07409'
p4571
I2318
sS'PF08173'
p4572
I2319
sS'PF00360'
p4573
I2321
sS'PF00361'
p4574
I2322
sS'PF00363'
p4575
I2324
sS'PF00364'
p4576
I2325
sS'PF00365'
p4577
I2326
sS'PF00366'
p4578
I2327
sS'PF00367'
p4579
I6794
sS'PF02685'
p4580
I6094
sS'PF02684'
p4581
I6095
sS'PF02686'
p4582
I6097
sS'PF10809'
p4583
I212
sS'PF10805'
p4584
I218
sS'PF02680'
p4585
I6099
sS'PF06205'
p4586
I2373
sS'PF06204'
p4587
I2374
sS'PF06207'
p4588
I2375
sS'PF06206'
p4589
I238
sS'PF06753'
p4590
I2377
sS'PF06200'
p4591
I2378
sS'PF06751'
p4592
I2379
sS'PF06202'
p4593
I2380
sS'PF02682'
p4594
I6101
sS'PF09079'
p4595
I6176
sS'PF09949'
p4596
I2393
sS'PF09948'
p4597
I2394
sS'PF09946'
p4598
I2395
sS'PF09945'
p4599
I2396
sS'PF09944'
p4600
I2397
sS'PF09943'
p4601
I2398
sS'PF09942'
p4602
I2399
sS'PF09941'
p4603
I2400
sS'PF09940'
p4604
I2401
sS'PF09078'
p4605
I6182
sS'PF01960'
p4606
I2419
sS'PF01963'
p4607
I2420
sS'PF01965'
p4608
I2421
sS'PF01964'
p4609
I2422
sS'PF01967'
p4610
I2423
sS'PF01966'
p4611
I2424
sS'PF01969'
p4612
I2425
sS'PF01968'
p4613
I2426
sS'PF11862'
p4614
I2427
sS'PF11868'
p4615
I2428
sS'PF11738'
p4616
I2429
sS'PF11737'
p4617
I2430
sS'PF02436'
p4618
I2436
sS'PF01442'
p4619
I1348
sS'PF02434'
p4620
I2438
sS'PF02433'
p4621
I2441
sS'PF04123'
p4622
I1542
sS'PF12186'
p4623
I4091
sS'PF04120'
p4624
I2448
sS'PF02439'
p4625
I842
sS'PF02128'
p4626
I2451
sS'PF02129'
p4627
I2452
sS'PF02120'
p4628
I2456
sS'PF04126'
p4629
I2457
sS'PF02122'
p4630
I2458
sS'PF02126'
p4631
I2460
sS'PF01447'
p4632
I1546
sS'PF01333'
p4633
I2466
sS'PF04876'
p4634
I2470
sS'PF04879'
p4635
I2471
sS'PF00311'
p4636
I2478
sS'PF00310'
p4637
I1556
sS'PF07473'
p4638
I2481
sS'PF09786'
p4639
I2482
sS'PF09788'
p4640
I1112
sS'PF07477'
p4641
I2487
sS'PF10028'
p4642
I2488
sS'PF10029'
p4643
I2489
sS'PF10026'
p4644
I2490
sS'PF10027'
p4645
I2491
sS'PF10024'
p4646
I2492
sS'PF07476'
p4647
I1561
sS'PF10022'
p4648
I2494
sS'PF10023'
p4649
I2495
sS'PF10021'
p4650
I2496
sS'PF07479'
p4651
I2497
sS'PF05475'
p4652
I1164
sS'PF05472'
p4653
I1165
sS'PF07478'
p4654
I2501
sS'PF05478'
p4655
I3914
sS'PF01774'
p4656
I2510
sS'PF01770'
p4657
I2513
sS'PF01773'
p4658
I2515
sS'PF01779'
p4659
I1247
sS'PF10123'
p4660
I2523
sS'PF10122'
p4661
I2524
sS'PF09163'
p4662
I2525
sS'PF10120'
p4663
I2526
sS'PF10127'
p4664
I2527
sS'PF10126'
p4665
I2528
sS'PF09167'
p4666
I2529
sS'PF10124'
p4667
I2530
sS'PF10129'
p4668
I2532
sS'PF10128'
p4669
I2533
sS'PF00175'
p4670
I2539
sS'PF00174'
p4671
I2540
sS'PF00177'
p4672
I2541
sS'PF00176'
p4673
I2542
sS'PF00171'
p4674
I2543
sS'PF00170'
p4675
I2544
sS'PF00173'
p4676
I1339
sS'PF00172'
p4677
I2546
sS'PF08788'
p4678
I2549
sS'PF08789'
p4679
I2550
sS'PF08780'
p4680
I1358
sS'PF08786'
p4681
I2555
sS'PF08784'
p4682
I2556
sS'PF08785'
p4683
I2557
sS'PF09550'
p4684
I6137
sS'PF04698'
p4685
I1387
sS'PF09551'
p4686
I6138
sS'PF04694'
p4687
I2561
sS'PF08129'
p4688
I1569
sS'PF04691'
p4689
I2564
sS'PF09006'
p4690
I6141
sS'PF08985'
p4691
I6309
sS'PF09555'
p4692
I6142
sS'PF09005'
p4693
I6144
sS'PF11292'
p4694
I2581
sS'PF11297'
p4695
I2582
sS'PF06438'
p4696
I6508
sS'PF06439'
p4697
I1700
sS'PF06924'
p4698
I2592
sS'PF06925'
p4699
I2593
sS'PF06430'
p4700
I2594
sS'PF06431'
p4701
I2595
sS'PF06437'
p4702
I4477
sS'PF06434'
p4703
I2598
sS'PF06923'
p4704
I2475
sS'PF08309'
p4705
I3156
sS'PF07348'
p4706
I2610
sS'PF07345'
p4707
I2611
sS'PF07344'
p4708
I2612
sS'PF06696'
p4709
I2613
sS'PF06695'
p4710
I2615
sS'PF06693'
p4711
I2617
sS'PF06690'
p4712
I2618
sS'PF06698'
p4713
I2626
sS'PF06699'
p4714
I1873
sS'PF08979'
p4715
I2633
sS'PF08975'
p4716
I2634
sS'PF08974'
p4717
I2635
sS'PF08971'
p4718
I2637
sS'PF08970'
p4719
I2638
sS'PF02333'
p4720
I2639
sS'PF08972'
p4721
I2640
sS'PF03747'
p4722
I5770
sS'PF02591'
p4723
I2661
sS'PF02590'
p4724
I2662
sS'PF02593'
p4725
I2663
sS'PF02592'
p4726
I2664
sS'PF02595'
p4727
I2665
sS'PF02594'
p4728
I4536
sS'PF02597'
p4729
I2667
sS'PF02596'
p4730
I2668
sS'PF02599'
p4731
I2669
sS'PF02598'
p4732
I2670
sS'PF02845'
p4733
I2671
sS'PF02844'
p4734
I2672
sS'PF02843'
p4735
I2673
sS'PF00999'
p4736
I2676
sS'PF00996'
p4737
I2677
sS'PF00994'
p4738
I2678
sS'PF00990'
p4739
I2680
sS'PF05649'
p4740
I2683
sS'PF05647'
p4741
I2688
sS'PF05640'
p4742
I2345
sS'PF05641'
p4743
I2346
sS'PF05642'
p4744
I1590
sS'PF05643'
p4745
I2692
sS'PF03029'
p4746
I1600
sS'PF03428'
p4747
I2695
sS'PF03429'
p4748
I2696
sS'PF03425'
p4749
I2697
sS'PF03422'
p4750
I2698
sS'PF03423'
p4751
I2699
sS'PF03421'
p4752
I2700
sS'PF03023'
p4753
I2704
sS'PF01169'
p4754
I2737
sS'PF01168'
p4755
I2583
sS'PF09314'
p4756
I2739
sS'PF04998'
p4757
I2740
sS'PF09312'
p4758
I2741
sS'PF09313'
p4759
I2742
sS'PF01161'
p4760
I2744
sS'PF01163'
p4761
I2746
sS'PF01162'
p4762
I2747
sS'PF04997'
p4763
I3643
sS'PF04996'
p4764
I2749
sS'PF09318'
p4765
I2750
sS'PF01166'
p4766
I2751
sS'PF00698'
p4767
I2752
sS'PF00699'
p4768
I2702
sS'PF08376'
p4769
I2708
sS'PF00690'
p4770
I2759
sS'PF00691'
p4771
I2760
sS'PF00692'
p4772
I2761
sS'PF08378'
p4773
I2762
sS'PF00694'
p4774
I2763
sS'PF00695'
p4775
I2719
sS'PF00696'
p4776
I2765
sS'PF00697'
p4777
I2766
sS'PF05869'
p4778
I2768
sS'PF05860'
p4779
I6673
sS'PF05861'
p4780
I6682
sS'PF05862'
p4781
I2777
sS'PF05864'
p4782
I2778
sS'PF05866'
p4783
I2780
sS'PF05867'
p4784
I2781
sS'PF04193'
p4785
I2782
sS'PF01344'
p4786
I2783
sS'PF04191'
p4787
I2784
sS'PF01346'
p4788
I2785
sS'PF01341'
p4789
I2786
sS'PF01340'
p4790
I2787
sS'PF01343'
p4791
I2788
sS'PF04199'
p4792
I2819
sS'PF04198'
p4793
I2792
sS'PF01349'
p4794
I2824
sS'PF01348'
p4795
I2826
sS'PF12210'
p4796
I2797
sS'PF08199'
p4797
I2803
sS'PF08198'
p4798
I2804
sS'PF08197'
p4799
I2805
sS'PF08195'
p4800
I2806
sS'PF08194'
p4801
I2807
sS'PF07646'
p4802
I2814
sS'PF07647'
p4803
I2815
sS'PF07644'
p4804
I2816
sS'PF07645'
p4805
I2817
sS'PF07642'
p4806
I2818
sS'PF07648'
p4807
I2820
sS'PF07649'
p4808
I2821
sS'PF06594'
p4809
I2822
sS'PF06596'
p4810
I2823
sS'PF06598'
p4811
I2825
sS'PF04737'
p4812
I2827
sS'PF04733'
p4813
I2828
sS'PF04738'
p4814
I3149
sS'PF10824'
p4815
I2832
sS'PF10825'
p4816
I2833
sS'PF00342'
p4817
I2835
sS'PF07423'
p4818
I2810
sS'PF00436'
p4819
I2837
sS'PF00437'
p4820
I2838
sS'PF00346'
p4821
I2839
sS'PF07427'
p4822
I3182
sS'PF00432'
p4823
I3186
sS'PF00345'
p4824
I2842
sS'PF00348'
p4825
I2844
sS'PF07429'
p4826
I3460
sS'PF00438'
p4827
I2846
sS'PF06770'
p4828
I3222
sS'PF06773'
p4829
I2851
sS'PF06772'
p4830
I2852
sS'PF06774'
p4831
I2853
sS'PF06776'
p4832
I2854
sS'PF06779'
p4833
I2855
sS'PF06778'
p4834
I2856
sS'PF09969'
p4835
I2864
sS'PF09968'
p4836
I2865
sS'PF09961'
p4837
I2868
sS'PF09960'
p4838
I2869
sS'PF09963'
p4839
I2870
sS'PF09962'
p4840
I3322
sS'PF09965'
p4841
I2872
sS'PF09964'
p4842
I2873
sS'PF09967'
p4843
I2874
sS'PF09966'
p4844
I2875
sS'PF07302'
p4845
I2878
sS'PF02810'
p4846
I3926
sS'PF02812'
p4847
I3928
sS'PF11087'
p4848
I2897
sS'PF11085'
p4849
I2898
sS'PF11083'
p4850
I2899
sS'PF02814'
p4851
I3930
sS'PF02817'
p4852
I3933
sS'PF01909'
p4853
I2910
sS'PF01908'
p4854
I2911
sS'PF01903'
p4855
I2912
sS'PF12216'
p4856
I3630
sS'PF01901'
p4857
I2914
sS'PF01900'
p4858
I2915
sS'PF01907'
p4859
I2916
sS'PF01906'
p4860
I2917
sS'PF01905'
p4861
I2918
sS'PF01904'
p4862
I2919
sS'PF02293'
p4863
I5787
sS'PF11887'
p4864
I3670
sS'PF08227'
p4865
I6643
sS'PF11880'
p4866
I3681
sS'PF03857'
p4867
I2931
sS'PF03855'
p4868
I2932
sS'PF03853'
p4869
I2933
sS'PF03852'
p4870
I2934
sS'PF03851'
p4871
I3687
sS'PF08756'
p4872
I6203
sS'PF03858'
p4873
I4595
sS'PF08207'
p4874
I6204
sS'PF02450'
p4875
I2951
sS'PF02452'
p4876
I2953
sS'PF02107'
p4877
I2955
sS'PF02456'
p4878
I3784
sS'PF02457'
p4879
I2957
sS'PF02458'
p4880
I1163
sS'PF02108'
p4881
I2960
sS'PF04853'
p4882
I2978
sS'PF04851'
p4883
I2980
sS'PF04854'
p4884
I2981
sS'PF10599'
p4885
I2982
sS'PF10592'
p4886
I2983
sS'PF10593'
p4887
I2984
sS'PF10590'
p4888
I2985
sS'PF10591'
p4889
I2986
sS'PF07107'
p4890
I6398
sS'PF10048'
p4891
I4082
sS'PF10049'
p4892
I4084
sS'PF10040'
p4893
I2997
sS'PF10041'
p4894
I2998
sS'PF10042'
p4895
I2999
sS'PF10043'
p4896
I3000
sS'PF10046'
p4897
I3002
sS'PF10047'
p4898
I3003
sS'PF05450'
p4899
I3236
sS'PF05453'
p4900
I4117
sS'PF05455'
p4901
I4118
sS'PF05457'
p4902
I4120
sS'PF05108'
p4903
I4123
sS'PF05107'
p4904
I3012
sS'PF05106'
p4905
I4128
sS'PF05105'
p4906
I3014
sS'PF05103'
p4907
I3016
sS'PF05101'
p4908
I3018
sS'PF05100'
p4909
I3019
sS'PF02445'
p4910
I2684
sS'PF04508'
p4911
I3023
sS'PF04509'
p4912
I3024
sS'PF01758'
p4913
I3025
sS'PF01756'
p4914
I3027
sS'PF01757'
p4915
I3028
sS'PF01754'
p4916
I3029
sS'PF04507'
p4917
I4176
sS'PF01752'
p4918
I3031
sS'PF04502'
p4919
I4183
sS'PF01751'
p4920
I3034
sS'PF01139'
p4921
I3960
sS'PF10108'
p4922
I3036
sS'PF10105'
p4923
I3037
sS'PF05147'
p4924
I3961
sS'PF10107'
p4925
I3039
sS'PF09100'
p4926
I4212
sS'PF09107'
p4927
I3041
sS'PF09106'
p4928
I3042
sS'PF09105'
p4929
I2249
sS'PF10102'
p4930
I3044
sS'PF05145'
p4931
I3963
sS'PF04944'
p4932
I3055
sS'PF01136'
p4933
I3968
sS'PF04942'
p4934
I3970
sS'PF11317'
p4935
I4386
sS'PF11316'
p4936
I4387
sS'PF11314'
p4937
I4388
sS'PF00239'
p4938
I6225
sS'PF07517'
p4939
I6227
sS'PF08939'
p4940
I4133
sS'PF07515'
p4941
I6229
sS'PF00232'
p4942
I6230
sS'PF07510'
p4943
I6232
sS'PF07511'
p4944
I6233
sS'PF06906'
p4945
I3103
sS'PF06904'
p4946
I3104
sS'PF06902'
p4947
I3106
sS'PF11279'
p4948
I4565
sS'PF06900'
p4949
I3108
sS'PF11274'
p4950
I3109
sS'PF06908'
p4951
I3110
sS'PF08933'
p4952
I1671
sS'PF07365'
p4953
I3124
sS'PF07364'
p4954
I3125
sS'PF07366'
p4955
I3126
sS'PF07361'
p4956
I3127
sS'PF07363'
p4957
I3128
sS'PF07362'
p4958
I4648
sS'PF07369'
p4959
I3131
sS'PF07368'
p4960
I6750
sS'PF07637'
p4961
I3143
sS'PF05307'
p4962
I3144
sS'PF08042'
p4963
I3158
sS'PF06014'
p4964
I3160
sS'PF06013'
p4965
I3162
sS'PF06018'
p4966
I3163
sS'PF03629'
p4967
I3175
sS'PF03625'
p4968
I5088
sS'PF03626'
p4969
I3177
sS'PF03620'
p4970
I5092
sS'PF03193'
p4971
I3180
sS'PF03190'
p4972
I3181
sS'PF03623'
p4973
I3922
sS'PF02868'
p4974
I3183
sS'PF10698'
p4975
I5120
sS'PF02861'
p4976
I3189
sS'PF10694'
p4977
I3190
sS'PF02863'
p4978
I5138
sS'PF10696'
p4979
I5140
sS'PF10691'
p4980
I3193
sS'PF10693'
p4981
I5145
sS'PF10692'
p4982
I5146
sS'PF05666'
p4983
I3196
sS'PF05662'
p4984
I3197
sS'PF05660'
p4985
I3198
sS'PF05661'
p4986
I3199
sS'PF03994'
p4987
I3201
sS'PF03995'
p4988
I5192
sS'PF03992'
p4989
I3203
sS'PF03993'
p4990
I3204
sS'PF03990'
p4991
I3205
sS'PF03991'
p4992
I3206
sS'PF03448'
p4993
I3213
sS'PF03449'
p4994
I3214
sS'PF03441'
p4995
I3215
sS'PF03442'
p4996
I3216
sS'PF03444'
p4997
I3217
sS'PF03445'
p4998
I3218
sS'PF03446'
p4999
I3219
sS'PF03447'
p5000
I5364
sS'PF05590'
p5001
I3225
sS'PF05591'
p5002
I3226
sS'PF05592'
p5003
I3227
sS'PF05593'
p5004
I3228
sS'PF05594'
p5005
I3229
sS'PF05595'
p5006
I5326
sS'PF05596'
p5007
I3231
sS'PF05597'
p5008
I3232
sS'PF05598'
p5009
I3233
sS'PF12023'
p5010
I3237
sS'PF12029'
p5011
I3238
sS'PF01510'
p5012
I6266
sS'PF01103'
p5013
I3252
sS'PF01106'
p5014
I3253
sS'PF01105'
p5015
I3254
sS'PF01104'
p5016
I3255
sS'PF09370'
p5017
I3257
sS'PF09371'
p5018
I3258
sS'PF09373'
p5019
I3259
sS'PF09374'
p5020
I5567
sS'PF09375'
p5021
I3261
sS'PF09376'
p5022
I3262
sS'PF09377'
p5023
I3263
sS'PF09378'
p5024
I3264
sS'PF09379'
p5025
I3159
sS'PF02719'
p5026
I3270
sS'PF05840'
p5027
I5935
sS'PF08359'
p5028
I3275
sS'PF05844'
p5029
I3276
sS'PF05845'
p5030
I3277
sS'PF08427'
p5031
I389
sS'PF08354'
p5032
I5623
sS'PF05848'
p5033
I3280
sS'PF05849'
p5034
I3281
sS'PF08351'
p5035
I3282
sS'PF08350'
p5036
I5630
sS'PF08353'
p5037
I3284
sS'PF08352'
p5038
I5634
sS'PF00919'
p5039
I3297
sS'PF04999'
p5040
I3300
sS'PF09594'
p5041
I3307
sS'PF09597'
p5042
I3309
sS'PF03278'
p5043
I6657
sS'PF09599'
p5044
I3311
sS'PF07992'
p5045
I3313
sS'PF07621'
p5046
I3314
sS'PF07623'
p5047
I3315
sS'PF07996'
p5048
I3316
sS'PF07625'
p5049
I3317
sS'PF07994'
p5050
I3318
sS'PF07995'
p5051
I3319
sS'PF07629'
p5052
I3320
sS'PF07998'
p5053
I3321
sS'PF06578'
p5054
I3323
sS'PF06577'
p5055
I3324
sS'PF06576'
p5056
I3325
sS'PF06575'
p5057
I3326
sS'PF06574'
p5058
I3327
sS'PF06572'
p5059
I3328
sS'PF06571'
p5060
I3329
sS'PF06570'
p5061
I3330
sS'PF04711'
p5062
I3331
sS'PF04713'
p5063
I3333
sS'PF04715'
p5064
I3334
sS'PF04717'
p5065
I3336
sS'PF04716'
p5066
I3337
sS'PF10840'
p5067
I592
sS'PF10841'
p5068
I3339
sS'PF07198'
p5069
I3349
sS'PF00418'
p5070
I3350
sS'PF00419'
p5071
I3351
sS'PF00416'
p5072
I3352
sS'PF00417'
p5073
I3353
sS'PF00414'
p5074
I3354
sS'PF00415'
p5075
I3355
sS'PF07196'
p5076
I3356
sS'PF07197'
p5077
I3357
sS'PF00410'
p5078
I3358
sS'PF00411'
p5079
I3359
sS'PF06719'
p5080
I3361
sS'PF06718'
p5081
I3362
sS'PF06713'
p5082
I3365
sS'PF06712'
p5083
I3366
sS'PF06711'
p5084
I6084
sS'PF06710'
p5085
I3368
sS'PF06716'
p5086
I3369
sS'PF06715'
p5087
I3370
sS'PF09903'
p5088
I3371
sS'PF09902'
p5089
I3372
sS'PF09901'
p5090
I3373
sS'PF09900'
p5091
I3374
sS'PF09907'
p5092
I3375
sS'PF09906'
p5093
I3376
sS'PF09905'
p5094
I3377
sS'PF09904'
p5095
I3378
sS'PF09908'
p5096
I3380
sS'PF10103'
p5097
I3043
sS'PF03294'
p5098
I3389
sS'PF03297'
p5099
I3390
sS'PF03291'
p5100
I3391
sS'PF00669'
p5101
I3393
sS'PF08417'
p5102
I897
sS'PF04542'
p5103
I4009
sS'PF04545'
p5104
I6330
sS'PF04546'
p5105
I6345
sS'PF01715'
p5106
I3402
sS'PF01925'
p5107
I3403
sS'PF01924'
p5108
I3404
sS'PF01927'
p5109
I3405
sS'PF01926'
p5110
I3406
sS'PF01921'
p5111
I3407
sS'PF01920'
p5112
I3408
sS'PF01923'
p5113
I3409
sS'PF08250'
p5114
I505
sS'PF01928'
p5115
I3413
sS'PF00662'
p5116
I4018
sS'PF07945'
p5117
I3415
sS'PF00664'
p5118
I4020
sS'PF00667'
p5119
I4021
sS'PF03873'
p5120
I3425
sS'PF03872'
p5121
I3426
sS'PF03875'
p5122
I3427
sS'PF03874'
p5123
I3428
sS'PF03876'
p5124
I3429
sS'PF03879'
p5125
I3430
sS'PF05359'
p5126
I1728
sS'PF02472'
p5127
I3449
sS'PF02470'
p5128
I3450
sS'PF02475'
p5129
I6591
sS'PF10062'
p5130
I3479
sS'PF08676'
p5131
I3480
sS'PF10060'
p5132
I35
sS'PF10061'
p5133
I534
sS'PF10066'
p5134
I3483
sS'PF10067'
p5135
I3484
sS'PF10064'
p5136
I3485
sS'PF10065'
p5137
I3486
sS'PF09293'
p5138
I152
sS'PF09292'
p5139
I3488
sS'PF10068'
p5140
I3489
sS'PF10069'
p5141
I620
sS'PF09297'
p5142
I3491
sS'PF09744'
p5143
I1355
sS'PF09747'
p5144
I3493
sS'PF09294'
p5145
I3494
sS'PF05128'
p5146
I105
sS'PF05433'
p5147
I3508
sS'PF05120'
p5148
I137
sS'PF05431'
p5149
I138
sS'PF05430'
p5150
I140
sS'PF05125'
p5151
I144
sS'PF05124'
p5152
I3513
sS'PF05127'
p5153
I3514
sS'PF01738'
p5154
I151
sS'PF01739'
p5155
I3516
sS'PF09127'
p5156
I155
sS'PF09126'
p5157
I156
sS'PF09121'
p5158
I3519
sS'PF09123'
p5159
I3521
sS'PF00444'
p5160
I3522
sS'PF01730'
p5161
I3523
sS'PF01731'
p5162
I168
sS'PF01734'
p5163
I3527
sS'PF01737'
p5164
I428
sS'PF07490'
p5165
I3776
sS'PF00441'
p5166
I4048
sS'PF00443'
p5167
I3533
sS'PF11333'
p5168
I3543
sS'PF11332'
p5169
I3544
sS'PF11337'
p5170
I3545
sS'PF11336'
p5171
I3546
sS'PF11339'
p5172
I3547
sS'PF04524'
p5173
I3548
sS'PF04525'
p5174
I3549
sS'PF04521'
p5175
I3553
sS'PF00067'
p5176
I3560
sS'PF00063'
p5177
I448
sS'PF00061'
p5178
I3564
sS'PF00060'
p5179
I3565
sS'PF00069'
p5180
I3570
sS'PF08654'
p5181
I3571
sS'PF08656'
p5182
I3572
sS'PF11255'
p5183
I3573
sS'PF11251'
p5184
I3574
sS'PF08659'
p5185
I3577
sS'PF11258'
p5186
I3578
sS'PF06961'
p5187
I3579
sS'PF06962'
p5188
I3580
sS'PF06963'
p5189
I3581
sS'PF06964'
p5190
I3582
sS'PF06965'
p5191
I3583
sS'PF06966'
p5192
I3584
sS'PF06967'
p5193
I3585
sS'PF06968'
p5194
I3586
sS'PF06969'
p5195
I3587
sS'PF07388'
p5196
I3601
sS'PF07387'
p5197
I3602
sS'PF07386'
p5198
I3603
sS'PF07385'
p5199
I3604
sS'PF07384'
p5200
I3605
sS'PF07382'
p5201
I3606
sS'PF07381'
p5202
I636
sS'PF06386'
p5203
I3621
sS'PF06387'
p5204
I3622
sS'PF06380'
p5205
I3623
sS'PF06381'
p5206
I3624
sS'PF06389'
p5207
I3626
sS'PF11924'
p5208
I3632
sS'PF11927'
p5209
I3633
sS'PF11929'
p5210
I1436
sS'PF06039'
p5211
I1123
sS'PF06037'
p5212
I3644
sS'PF06035'
p5213
I3646
sS'PF06032'
p5214
I3647
sS'PF06030'
p5215
I3648
sS'PF06031'
p5216
I3649
sS'PF03606'
p5217
I3650
sS'PF03607'
p5218
I3651
sS'PF03604'
p5219
I3652
sS'PF03605'
p5220
I3653
sS'PF03602'
p5221
I3654
sS'PF03603'
p5222
I3655
sS'PF03600'
p5223
I3656
sS'PF03601'
p5224
I3657
sS'PF03608'
p5225
I3659
sS'PF03609'
p5226
I3660
sS'PF03462'
p5227
I3672
sS'PF03463'
p5228
I3673
sS'PF03460'
p5229
I3674
sS'PF03461'
p5230
I3675
sS'PF03466'
p5231
I3676
sS'PF03464'
p5232
I3677
sS'PF03465'
p5233
I3678
sS'PF03469'
p5234
I3679
sS'PF08867'
p5235
I2659
sS'PF08866'
p5236
I3692
sS'PF08865'
p5237
I2693
sS'PF08864'
p5238
I1404
sS'PF02807'
p5239
I1405
sS'PF08862'
p5240
I1406
sS'PF02805'
p5241
I1409
sS'PF08860'
p5242
I3698
sS'PF12006'
p5243
I3699
sS'PF02809'
p5244
I3700
sS'PF12005'
p5245
I3701
sS'PF12002'
p5246
I3702
sS'PF12000'
p5247
I1424
sS'PF08868'
p5248
I3704
sS'PF01128'
p5249
I3728
sS'PF04958'
p5250
I3730
sS'PF04957'
p5251
I3731
sS'PF04956'
p5252
I3732
sS'PF04955'
p5253
I2141
sS'PF04954'
p5254
I3734
sS'PF01121'
p5255
I3735
sS'PF01120'
p5256
I1565
sS'PF01123'
p5257
I154
sS'PF02730'
p5258
I3739
sS'PF02733'
p5259
I3740
sS'PF09359'
p5260
I1591
sS'PF02735'
p5261
I3742
sS'PF02734'
p5262
I3743
sS'PF02737'
p5263
I3744
sS'PF02736'
p5264
I3745
sS'PF09352'
p5265
I1598
sS'PF02738'
p5266
I1601
sS'PF09350'
p5267
I3748
sS'PF09351'
p5268
I1607
sS'PF09356'
p5269
I3750
sS'PF09357'
p5270
I1611
sS'PF09355'
p5271
I3753
sS'PF08409'
p5272
I1623
sS'PF08401'
p5273
I3761
sS'PF08402'
p5274
I3764
sS'PF08406'
p5275
I3765
sS'PF01389'
p5276
I3767
sS'PF01381'
p5277
I3769
sS'PF01380'
p5278
I3770
sS'PF01383'
p5279
I3771
sS'PF01385'
p5280
I3772
sS'PF01384'
p5281
I3773
sS'PF01386'
p5282
I3774
sS'PF07609'
p5283
I6351
sS'PF07978'
p5284
I6323
sS'PF07979'
p5285
I5144
sS'PF07974'
p5286
I1929
sS'PF07975'
p5287
I1934
sS'PF07976'
p5288
I1936
sS'PF00657'
p5289
I1335
sS'PF07606'
p5290
I1943
sS'PF07971'
p5291
I3797
sS'PF00652'
p5292
I1947
sS'PF07973'
p5293
I1948
sS'PF06559'
p5294
I3800
sS'PF06558'
p5295
I1953
sS'PF06551'
p5296
I3807
sS'PF06550'
p5297
I3808
sS'PF06555'
p5298
I6661
sS'PF06557'
p5299
I3811
sS'PF04773'
p5300
I2022
sS'PF04777'
p5301
I3822
sS'PF04775'
p5302
I3823
sS'PF00386'
p5303
I3824
sS'PF00384'
p5304
I3825
sS'PF00385'
p5305
I3826
sS'PF10318'
p5306
I4458
sS'PF00383'
p5307
I3828
sS'PF00380'
p5308
I3829
sS'PF00381'
p5309
I3830
sS'PF10862'
p5310
I3831
sS'PF10861'
p5311
I6346
sS'PF10310'
p5312
I3833
sS'PF12329'
p5313
I194
sS'PF00388'
p5314
I3835
sS'PF10313'
p5315
I2114
sS'PF00478'
p5316
I3837
sS'PF00479'
p5317
I3838
sS'PF02923'
p5318
I6311
sS'PF00471'
p5319
I3840
sS'PF00472'
p5320
I3841
sS'PF00473'
p5321
I3842
sS'PF00474'
p5322
I3843
sS'PF00475'
p5323
I3844
sS'PF00476'
p5324
I3845
sS'PF08981'
p5325
I6313
sS'PF08982'
p5326
I1764
sS'PF09929'
p5327
I3857
sS'PF09928'
p5328
I3858
sS'PF09925'
p5329
I3859
sS'PF09924'
p5330
I3860
sS'PF09927'
p5331
I3861
sS'PF09926'
p5332
I3862
sS'PF09921'
p5333
I3863
sS'PF09920'
p5334
I3864
sS'PF09923'
p5335
I3865
sS'PF09922'
p5336
I3866
sS'PF02699'
p5337
I6319
sS'PF08484'
p5338
I1810
sS'PF08487'
p5339
I1811
sS'PF05823'
p5340
I848
sS'PF08335'
p5341
I1815
sS'PF05829'
p5342
I1818
sS'PF06734'
p5343
I3879
sS'PF06737'
p5344
I3880
sS'PF06736'
p5345
I3881
sS'PF06733'
p5346
I3882
sS'PF06739'
p5347
I3884
sS'PF06738'
p5348
I3885
sS'PF12250'
p5349
I2477
sS'PF12256'
p5350
I3891
sS'PF10179'
p5351
I4698
sS'PF03819'
p5352
I3900
sS'PF03818'
p5353
I3901
sS'PF03812'
p5354
I3902
sS'PF03811'
p5355
I3903
sS'PF03817'
p5356
I3904
sS'PF03816'
p5357
I3905
sS'PF03815'
p5358
I3906
sS'PF03814'
p5359
I3907
sS'PF01304'
p5360
I3920
sS'PF04484'
p5361
I3923
sS'PF09723'
p5362
I3939
sS'PF09722'
p5363
I3940
sS'PF09721'
p5364
I3941
sS'PF09720'
p5365
I3942
sS'PF09726'
p5366
I3944
sS'PF01006'
p5367
I6335
sS'PF09728'
p5368
I3947
sS'PF10088'
p5369
I3948
sS'PF10089'
p5370
I3949
sS'PF10084'
p5371
I3952
sS'PF10086'
p5372
I3953
sS'PF10087'
p5373
I3954
sS'PF10080'
p5374
I3955
sS'PF10081'
p5375
I3956
sS'PF10082'
p5376
I3957
sS'PF10083'
p5377
I3958
sS'PF05141'
p5378
I3032
sS'PF05140'
p5379
I3035
sS'PF05411'
p5380
I3038
sS'PF05410'
p5381
I3978
sS'PF05413'
p5382
I2025
sS'PF05148'
p5383
I3057
sS'PF05419'
p5384
I3060
sS'PF00306'
p5385
I1849
sS'PF00307'
p5386
I1850
sS'PF07465'
p5387
I1852
sS'PF00302'
p5388
I1853
sS'PF00303'
p5389
I5794
sS'PF00300'
p5390
I1855
sS'PF11681'
p5391
I3990
sS'PF11683'
p5392
I3991
sS'PF11684'
p5393
I3992
sS'PF08092'
p5394
I3995
sS'PF08093'
p5395
I3996
sS'PF08090'
p5396
I3997
sS'PF08091'
p5397
I3998
sS'PF08096'
p5398
I3999
sS'PF08097'
p5399
I4000
sS'PF08094'
p5400
I4001
sS'PF08095'
p5401
I4002
sS'PF08098'
p5402
I4003
sS'PF08099'
p5403
I4004
sS'PF11351'
p5404
I4006
sS'PF01712'
p5405
I767
sS'PF01713'
p5406
I3395
sS'PF01710'
p5407
I1157
sS'PF01247'
p5408
I3398
sS'PF01716'
p5409
I4011
sS'PF01717'
p5410
I3399
sS'PF01242'
p5411
I4013
sS'PF01243'
p5412
I4014
sS'PF04548'
p5413
I6362
sS'PF01248'
p5414
I4019
sS'PF00041'
p5415
I4022
sS'PF00043'
p5416
I4023
sS'PF00042'
p5417
I4024
sS'PF00045'
p5418
I4025
sS'PF00044'
p5419
I4026
sS'PF00047'
p5420
I4027
sS'PF07017'
p5421
I4028
sS'PF07016'
p5422
I4029
sS'PF07015'
p5423
I4030
sS'PF07012'
p5424
I4031
sS'PF11230'
p5425
I3466
sS'PF11232'
p5426
I4033
sS'PF11234'
p5427
I4034
sS'PF11236'
p5428
I4035
sS'PF08679'
p5429
I4036
sS'PF11238'
p5430
I3872
sS'PF11239'
p5431
I3877
sS'PF08674'
p5432
I4039
sS'PF08673'
p5433
I4041
sS'PF08670'
p5434
I4042
sS'PF08671'
p5435
I4043
sS'PF06948'
p5436
I4046
sS'PF06949'
p5437
I4047
sS'PF06942'
p5438
I4052
sS'PF06943'
p5439
I4053
sS'PF06940'
p5440
I4054
sS'PF06941'
p5441
I3539
sS'PF06947'
p5442
I4057
sS'PF06944'
p5443
I4058
sS'PF06945'
p5444
I4059
sS'PF11906'
p5445
I4100
sS'PF11907'
p5446
I4101
sS'PF06059'
p5447
I4102
sS'PF06050'
p5448
I4105
sS'PF06051'
p5449
I4106
sS'PF06052'
p5450
I4107
sS'PF06053'
p5451
I4108
sS'PF06054'
p5452
I4109
sS'PF06055'
p5453
I4110
sS'PF06056'
p5454
I4111
sS'PF06057'
p5455
I4112
sS'PF03664'
p5456
I4113
sS'PF03665'
p5457
I4114
sS'PF03668'
p5458
I4116
sS'PF05628'
p5459
I4127
sS'PF05620'
p5460
I4129
sS'PF05621'
p5461
I4130
sS'PF05626'
p5462
I4131
sS'PF03489'
p5463
I4135
sS'PF03484'
p5464
I4137
sS'PF03485'
p5465
I4138
sS'PF03486'
p5466
I4139
sS'PF03487'
p5467
I4140
sS'PF03480'
p5468
I4141
sS'PF03481'
p5469
I4142
sS'PF03483'
p5470
I4143
sS'PF08841'
p5471
I4159
sS'PF08840'
p5472
I4160
sS'PF02283'
p5473
I4161
sS'PF08842'
p5474
I4162
sS'PF02829'
p5475
I4163
sS'PF02828'
p5476
I4164
sS'PF02287'
p5477
I4165
sS'PF02286'
p5478
I3145
sS'PF08849'
p5479
I1531
sS'PF02824'
p5480
I4168
sS'PF02535'
p5481
I4169
sS'PF02826'
p5482
I4170
sS'PF02533'
p5483
I4171
sS'PF02532'
p5484
I4172
sS'PF02823'
p5485
I4173
sS'PF02530'
p5486
I4174
sS'PF05088'
p5487
I4177
sS'PF05089'
p5488
I4178
sS'PF05082'
p5489
I4180
sS'PF02613'
p5490
I1618
sS'PF04978'
p5491
I4454
sS'PF04971'
p5492
I4191
sS'PF04970'
p5493
I4473
sS'PF04973'
p5494
I4193
sS'PF04972'
p5495
I4194
sS'PF04977'
p5496
I4195
sS'PF04976'
p5497
I2840
sS'PF02753'
p5498
I4199
sS'PF02751'
p5499
I4200
sS'PF02757'
p5500
I4202
sS'PF02756'
p5501
I4203
sS'PF02755'
p5502
I4204
sS'PF02754'
p5503
I4205
sS'PF10747'
p5504
I4210
sS'PF10745'
p5505
I4211
sS'PF10743'
p5506
I4213
sS'PF10742'
p5507
I4214
sS'PF10741'
p5508
I4215
sS'PF10740'
p5509
I4216
sS'PF04289'
p5510
I4228
sS'PF04288'
p5511
I4229
sS'PF04283'
p5512
I4781
sS'PF04282'
p5513
I4233
sS'PF04280'
p5514
I4234
sS'PF04287'
p5515
I4235
sS'PF04286'
p5516
I4789
sS'PF04285'
p5517
I4791
sS'PF04284'
p5518
I4238
sS'PF00676'
p5519
I4239
sS'PF00677'
p5520
I4240
sS'PF07954'
p5521
I4241
sS'PF07955'
p5522
I4797
sS'PF00672'
p5523
I4243
sS'PF00673'
p5524
I4244
sS'PF00670'
p5525
I4245
sS'PF07958'
p5526
I4248
sS'PF07959'
p5527
I4820
sS'PF08463'
p5528
I4250
sS'PF05887'
p5529
I4251
sS'PF08461'
p5530
I4252
sS'PF08460'
p5531
I4835
sS'PF08467'
p5532
I4254
sS'PF08466'
p5533
I4836
sS'PF08465'
p5534
I707
sS'PF05881'
p5535
I1641
sS'PF08468'
p5536
I4260
sS'PF05889'
p5537
I4261
sS'PF04755'
p5538
I4262
sS'PF04754'
p5539
I4263
sS'PF04025'
p5540
I4264
sS'PF04024'
p5541
I4265
sS'PF01503'
p5542
I4266
sS'PF01502'
p5543
I4267
sS'PF01501'
p5544
I1366
sS'PF04020'
p5545
I4269
sS'PF04758'
p5546
I4273
sS'PF04029'
p5547
I4274
sS'PF04028'
p5548
I4275
sS'PF10335'
p5549
I4276
sS'PF10333'
p5550
I4277
sS'PF10331'
p5551
I4278
sS'PF10338'
p5552
I4280
sS'PF10339'
p5553
I4926
sS'PF07480'
p5554
I4282
sS'PF00453'
p5555
I4283
sS'PF00450'
p5556
I4062
sS'PF00451'
p5557
I4285
sS'PF00456'
p5558
I4286
sS'PF07485'
p5559
I4287
sS'PF07486'
p5560
I4288
sS'PF00455'
p5561
I4289
sS'PF07488'
p5562
I4290
sS'PF00459'
p5563
I4291
sS'PF08286'
p5564
I4299
sS'PF08285'
p5565
I4300
sS'PF08282'
p5566
I4301
sS'PF08281'
p5567
I4302
sS'PF08280'
p5568
I4303
sS'PF06532'
p5569
I4305
sS'PF06530'
p5570
I4306
sS'PF06537'
p5571
I4307
sS'PF06534'
p5572
I4308
sS'PF06539'
p5573
I4309
sS'PF07311'
p5574
I1892
sS'PF07313'
p5575
I1894
sS'PF07224'
p5576
I4314
sS'PF07225'
p5577
I4315
sS'PF07226'
p5578
I4316
sS'PF07221'
p5579
I4317
sS'PF07228'
p5580
I4319
sS'PF02281'
p5581
I4746
sS'PF08843'
p5582
I4329
sS'PF02282'
p5583
I4331
sS'PF06289'
p5584
I4332
sS'PF06288'
p5585
I4333
sS'PF08845'
p5586
I4335
sS'PF06281'
p5587
I4336
sS'PF06280'
p5588
I4337
sS'PF06283'
p5589
I4338
sS'PF06282'
p5590
I4339
sS'PF08847'
p5591
I4343
sS'PF02538'
p5592
I4166
sS'PF07742'
p5593
I6748
sS'PF02537'
p5594
I4167
sS'PF02288'
p5595
I3154
sS'PF12277'
p5596
I4352
sS'PF12273'
p5597
I4353
sS'PF04438'
p5598
I6401
sS'PF02534'
p5599
I4355
sS'PF02531'
p5600
I4365
sS'PF05926'
p5601
I6408
sS'PF08746'
p5602
I6409
sS'PF04437'
p5603
I2514
sS'PF10538'
p5604
I4389
sS'PF10535'
p5605
I4390
sS'PF10530'
p5606
I4391
sS'PF10531'
p5607
I4392
sS'PF10867'
p5608
I6471
sS'PF03835'
p5609
I4397
sS'PF03346'
p5610
I4398
sS'PF03837'
p5611
I5768
sS'PF03831'
p5612
I4401
sS'PF03830'
p5613
I4402
sS'PF03833'
p5614
I5772
sS'PF03832'
p5615
I4404
sS'PF03838'
p5616
I6352
sS'PF03349'
p5617
I5790
sS'PF09709'
p5618
I4413
sS'PF09708'
p5619
I4414
sS'PF09258'
p5620
I4415
sS'PF09705'
p5621
I3397
sS'PF09704'
p5622
I4417
sS'PF09707'
p5623
I4418
sS'PF09706'
p5624
I4419
sS'PF09701'
p5625
I4420
sS'PF09700'
p5626
I4421
sS'PF09250'
p5627
I4423
sS'PF05169'
p5628
I4434
sS'PF05168'
p5629
I4435
sS'PF05165'
p5630
I4436
sS'PF05164'
p5631
I4437
sS'PF05167'
p5632
I4438
sS'PF05166'
p5633
I4439
sS'PF05161'
p5634
I4440
sS'PF05163'
p5635
I4442
sS'PF05162'
p5636
I4443
sS'PF05152'
p5637
I4456
sS'PF05153'
p5638
I4187
sS'PF05406'
p5639
I4459
sS'PF05157'
p5640
I4190
sS'PF01083'
p5641
I4469
sS'PF01081'
p5642
I4470
sS'PF01087'
p5643
I4471
sS'PF01084'
p5644
I4472
sS'PF08922'
p5645
I1909
sS'PF01593'
p5646
I6438
sS'PF02363'
p5647
I1910
sS'PF02361'
p5648
I1911
sS'PF11377'
p5649
I6159
sS'PF00248'
p5650
I6442
sS'PF08078'
p5651
I4482
sS'PF08076'
p5652
I4485
sS'PF08077'
p5653
I6164
sS'PF11379'
p5654
I6168
sS'PF08071'
p5655
I3458
sS'PF08072'
p5656
I3462
sS'PF07563'
p5657
I6443
sS'PF04568'
p5658
I4499
sS'PF08928'
p5659
I5046
sS'PF01268'
p5660
I6242
sS'PF07290'
p5661
I5853
sS'PF01266'
p5662
I4503
sS'PF04563'
p5663
I4504
sS'PF01264'
p5664
I4505
sS'PF04561'
p5665
I4506
sS'PF01262'
p5666
I4507
sS'PF01263'
p5667
I4508
sS'PF04564'
p5668
I4509
sS'PF01261'
p5669
I4510
sS'PF07038'
p5670
I4512
sS'PF00028'
p5671
I4514
sS'PF00023'
p5672
I4518
sS'PF07030'
p5673
I4519
sS'PF00020'
p5674
I4521
sS'PF00027'
p5675
I4522
sS'PF00026'
p5676
I6285
sS'PF07037'
p5677
I4524
sS'PF00024'
p5678
I4525
sS'PF07297'
p5679
I650
sS'PF11212'
p5680
I4530
sS'PF08611'
p5681
I4531
sS'PF08613'
p5682
I4532
sS'PF08614'
p5683
I4533
sS'PF11214'
p5684
I4534
sS'PF10294'
p5685
I6509
sS'PF10297'
p5686
I6511
sS'PF10298'
p5687
I4552
sS'PF09882'
p5688
I4566
sS'PF09883'
p5689
I4567
sS'PF09880'
p5690
I4568
sS'PF09881'
p5691
I4569
sS'PF09886'
p5692
I4570
sS'PF09887'
p5693
I4571
sS'PF09884'
p5694
I4572
sS'PF09885'
p5695
I4573
sS'PF09888'
p5696
I4574
sS'PF09889'
p5697
I4575
sS'PF06072'
p5698
I4581
sS'PF06073'
p5699
I4582
sS'PF06071'
p5700
I4583
sS'PF06074'
p5701
I4584
sS'PF06078'
p5702
I4586
sS'PF11964'
p5703
I4587
sS'PF11965'
p5704
I4588
sS'PF11966'
p5705
I4589
sS'PF07561'
p5706
I6445
sS'PF03648'
p5707
I4596
sS'PF03649'
p5708
I4597
sS'PF03139'
p5709
I6795
sS'PF03135'
p5710
I4599
sS'PF03640'
p5711
I4600
sS'PF03641'
p5712
I4601
sS'PF03646'
p5713
I1
sS'PF03647'
p5714
I4603
sS'PF03644'
p5715
I4604
sS'PF03133'
p5716
I4605
sS'PF01864'
p5717
I4619
sS'PF01865'
p5718
I4620
sS'PF01866'
p5719
I4621
sS'PF01867'
p5720
I4622
sS'PF01861'
p5721
I4623
sS'PF01862'
p5722
I4624
sS'PF01863'
p5723
I4625
sS'PF01868'
p5724
I4627
sS'PF01869'
p5725
I4628
sS'PF12593'
p5726
I4631
sS'PF11691'
p5727
I6195
sS'PF12042'
p5728
I4646
sS'PF12048'
p5729
I298
sS'PF02518'
p5730
I4650
sS'PF08828'
p5731
I4651
sS'PF02511'
p5732
I4656
sS'PF08822'
p5733
I4657
sS'PF08821'
p5734
I4658
sS'PF08820'
p5735
I337
sS'PF02515'
p5736
I341
sS'PF02514'
p5737
I4661
sS'PF08825'
p5738
I107
sS'PF02516'
p5739
I4663
sS'PF11583'
p5740
I372
sS'PF11580'
p5741
I4671
sS'PF04911'
p5742
I4675
sS'PF04917'
p5743
I4677
sS'PF04915'
p5744
I4678
sS'PF04914'
p5745
I4679
sS'PF04919'
p5746
I4680
sS'PF04918'
p5747
I4681
sS'PF02775'
p5748
I4683
sS'PF02774'
p5749
I4684
sS'PF02777'
p5750
I4685
sS'PF02776'
p5751
I4686
sS'PF02771'
p5752
I4687
sS'PF02770'
p5753
I4688
sS'PF02773'
p5754
I4689
sS'PF02772'
p5755
I4690
sS'PF02779'
p5756
I4694
sS'PF02778'
p5757
I4695
sS'PF10761'
p5758
I4705
sS'PF10760'
p5759
I4706
sS'PF10762'
p5760
I4708
sS'PF10765'
p5761
I4709
sS'PF10764'
p5762
I4710
sS'PF10767'
p5763
I4711
sS'PF10766'
p5764
I4712
sS'PF10769'
p5765
I4713
sS'PF10768'
p5766
I4714
sS'PF01695'
p5767
I4726
sS'PF01694'
p5768
I4727
sS'PF01692'
p5769
I4728
sS'PF01690'
p5770
I4729
sS'PF01699'
p5771
I4730
sS'PF09064'
p5772
I1926
sS'PF09065'
p5773
I4733
sS'PF09060'
p5774
I4735
sS'PF09061'
p5775
I698
sS'PF09062'
p5776
I4737
sS'PF07930'
p5777
I4745
sS'PF07931'
p5778
I3886
sS'PF07932'
p5779
I320
sS'PF07933'
p5780
I4748
sS'PF07934'
p5781
I757
sS'PF07935'
p5782
I4750
sS'PF07936'
p5783
I4751
sS'PF07937'
p5784
I4752
sS'PF00619'
p5785
I4753
sS'PF05207'
p5786
I773
sS'PF08449'
p5787
I4756
sS'PF08448'
p5788
I4757
sS'PF08445'
p5789
I4758
sS'PF08444'
p5790
I779
sS'PF08447'
p5791
I4760
sS'PF08446'
p5792
I806
sS'PF05209'
p5793
I4762
sS'PF08443'
p5794
I4763
sS'PF08442'
p5795
I4764
sS'PF04000'
p5796
I829
sS'PF04003'
p5797
I4707
sS'PF04002'
p5798
I4768
sS'PF01527'
p5799
I4770
sS'PF01526'
p5800
I4771
sS'PF04009'
p5801
I846
sS'PF04008'
p5802
I4773
sS'PF10350'
p5803
I4780
sS'PF10356'
p5804
I4783
sS'PF00675'
p5805
I4242
sS'PF12601'
p5806
I4799
sS'PF12607'
p5807
I4800
sS'PF06519'
p5808
I1120
sS'PF06514'
p5809
I4806
sS'PF06511'
p5810
I179
sS'PF06510'
p5811
I4808
sS'PF10979'
p5812
I4815
sS'PF07208'
p5813
I4817
sS'PF07209'
p5814
I4818
sS'PF07204'
p5815
I4819
sS'PF00679'
p5816
I4249
sS'PF07203'
p5817
I4822
sS'PF07200'
p5818
I1226
sS'PF07201'
p5819
I4824
sS'PF02611'
p5820
I6093
sS'PF11005'
p5821
I1269
sS'PF11004'
p5822
I1270
sS'PF01983'
p5823
I4837
sS'PF01982'
p5824
I4838
sS'PF01981'
p5825
I4839
sS'PF01980'
p5826
I4840
sS'PF01987'
p5827
I4841
sS'PF01986'
p5828
I4842
sS'PF01985'
p5829
I4843
sS'PF01984'
p5830
I4844
sS'PF01989'
p5831
I1347
sS'PF01988'
p5832
I1349
sS'PF01507'
p5833
I4857
sS'PF01506'
p5834
I4859
sS'PF01505'
p5835
I4860
sS'PF02188'
p5836
I4861
sS'PF02189'
p5837
I4862
sS'PF04023'
p5838
I5256
sS'PF02180'
p5839
I4864
sS'PF02186'
p5840
I4865
sS'PF02184'
p5841
I4866
sS'PF02185'
p5842
I1593
sS'PF04021'
p5843
I4268
sS'PF04752'
p5844
I6503
sS'PF03415'
p5845
I4874
sS'PF03584'
p5846
I1643
sS'PF03587'
p5847
I4877
sS'PF03414'
p5848
I4878
sS'PF03581'
p5849
I4879
sS'PF03583'
p5850
I4880
sS'PF03589'
p5851
I4882
sS'PF03588'
p5852
I4883
sS'PF03412'
p5853
I4884
sS'PF10516'
p5854
I4885
sS'PF02983'
p5855
I1680
sS'PF02986'
p5856
I4888
sS'PF02987'
p5857
I4889
sS'PF02985'
p5858
I1698
sS'PF10518'
p5859
I4891
sS'PF01509'
p5860
I4893
sS'PF02410'
p5861
I1985
sS'PF02412'
p5862
I1987
sS'PF03367'
p5863
I4906
sS'PF09278'
p5864
I4910
sS'PF09273'
p5865
I4911
sS'PF09274'
p5866
I4912
sS'PF09277'
p5867
I4913
sS'PF09455'
p5868
I1991
sS'PF08605'
p5869
I5162
sS'PF09325'
p5870
I4927
sS'PF07482'
p5871
I4284
sS'PF09322'
p5872
I4929
sS'PF09453'
p5873
I1997
sS'PF07484'
p5874
I4932
sS'PF00454'
p5875
I4933
sS'PF01068'
p5876
I4941
sS'PF01066'
p5877
I4942
sS'PF01061'
p5878
I4943
sS'PF01063'
p5879
I4944
sS'PF08056'
p5880
I4945
sS'PF08057'
p5881
I4946
sS'PF08054'
p5882
I4947
sS'PF08055'
p5883
I2179
sS'PF08052'
p5884
I2180
sS'PF08053'
p5885
I4950
sS'PF08050'
p5886
I4951
sS'PF08051'
p5887
I4952
sS'PF08058'
p5888
I4954
sS'PF11397'
p5889
I2227
sS'PF11396'
p5890
I2231
sS'PF11393'
p5891
I4964
sS'PF11392'
p5892
I4965
sS'PF08587'
p5893
I2248
sS'PF09183'
p5894
I2296
sS'PF09182'
p5895
I4977
sS'PF09180'
p5896
I4979
sS'PF09186'
p5897
I4981
sS'PF01200'
p5898
I5795
sS'PF01201'
p5899
I2330
sS'PF09189'
p5900
I4985
sS'PF09188'
p5901
I4986
sS'PF01204'
p5902
I4987
sS'PF01205'
p5903
I4988
sS'PF01206'
p5904
I4989
sS'PF01207'
p5905
I4990
sS'PF08635'
p5906
I2358
sS'PF02237'
p5907
I5847
sS'PF00557'
p5908
I2614
sS'PF00556'
p5909
I2619
sS'PF07051'
p5910
I4092
sS'PF00006'
p5911
I4858
sS'PF00553'
p5912
I5026
sS'PF07055'
p5913
I2630
sS'PF07054'
p5914
I2632
sS'PF07058'
p5915
I5031
sS'PF00009'
p5916
I5032
sS'PF00008'
p5917
I5033
sS'PF06895'
p5918
I5036
sS'PF06896'
p5919
I5037
sS'PF06897'
p5920
I5038
sS'PF06890'
p5921
I5039
sS'PF06891'
p5922
I5040
sS'PF06892'
p5923
I2646
sS'PF06893'
p5924
I5042
sS'PF06898'
p5925
I5044
sS'PF06899'
p5926
I5045
sS'PF07504'
p5927
I6002
sS'PF09868'
p5928
I5053
sS'PF09869'
p5929
I5054
sS'PF09864'
p5930
I5056
sS'PF09865'
p5931
I5057
sS'PF09866'
p5932
I5058
sS'PF09867'
p5933
I5059
sS'PF09860'
p5934
I5060
sS'PF09861'
p5935
I5061
sS'PF09862'
p5936
I5062
sS'PF09863'
p5937
I5063
sS'PF06099'
p5938
I2831
sS'PF06094'
p5939
I5075
sS'PF06097'
p5940
I5077
sS'PF03116'
p5941
I5078
sS'PF03112'
p5942
I5079
sS'PF03118'
p5943
I5080
sS'PF03119'
p5944
I5081
sS'PF04145'
p5945
I1745
sS'PF01848'
p5946
I5089
sS'PF01849'
p5947
I5090
sS'PF01846'
p5948
I5091
sS'PF01844'
p5949
I5093
sS'PF01845'
p5950
I5094
sS'PF01842'
p5951
I5095
sS'PF01841'
p5952
I5096
sS'PF11941'
p5953
I3147
sS'PF11946'
p5954
I3148
sS'PF11947'
p5955
I3150
sS'PF11944'
p5956
I3151
sS'PF11949'
p5957
I1266
sS'PF08805'
p5958
I5121
sS'PF02572'
p5959
I5122
sS'PF02571'
p5960
I3240
sS'PF02570'
p5961
I5124
sS'PF08801'
p5962
I3248
sS'PF02576'
p5963
I5126
sS'PF02575'
p5964
I5127
sS'PF08802'
p5965
I3256
sS'PF02579'
p5966
I5130
sS'PF02578'
p5967
I5131
sS'PF08809'
p5968
I5132
sS'PF08808'
p5969
I5133
sS'PF04936'
p5970
I3394
sS'PF04930'
p5971
I5147
sS'PF04932'
p5972
I5148
sS'PF02798'
p5973
I5150
sS'PF02797'
p5974
I5151
sS'PF02796'
p5975
I5152
sS'PF02794'
p5976
I5153
sS'PF02793'
p5977
I5154
sS'PF02790'
p5978
I5156
sS'PF10709'
p5979
I5159
sS'PF10708'
p5980
I5160
sS'PF10702'
p5981
I5163
sS'PF10701'
p5982
I5164
sS'PF10707'
p5983
I5165
sS'PF10706'
p5984
I5166
sS'PF10704'
p5985
I5167
sS'PF04027'
p5986
I5180
sS'PF04248'
p5987
I3658
sS'PF04247'
p5988
I5185
sS'PF04246'
p5989
I5186
sS'PF04245'
p5990
I3661
sS'PF04244'
p5991
I3662
sS'PF04242'
p5992
I5189
sS'PF04241'
p5993
I5190
sS'PF04240'
p5994
I3671
sS'PF09048'
p5995
I5194
sS'PF09049'
p5996
I5195
sS'PF09514'
p5997
I5196
sS'PF09047'
p5998
I5197
sS'PF09045'
p5999
I3685
sS'PF09042'
p6000
I5199
sS'PF09043'
p6001
I5200
sS'PF09040'
p6002
I5201
sS'PF09513'
p6003
I5202
sS'PF04026'
p6004
I5203
sS'PF07918'
p6005
I5205
sS'PF00639'
p6006
I5206
sS'PF00632'
p6007
I5210
sS'PF00633'
p6008
I1921
sS'PF00630'
p6009
I5212
sS'PF07916'
p6010
I5213
sS'PF07914'
p6011
I3766
sS'PF07915'
p6012
I5216
sS'PF05228'
p6013
I5221
sS'PF05229'
p6014
I5222
sS'PF05226'
p6015
I3778
sS'PF05227'
p6016
I5224
sS'PF05225'
p6017
I5225
sS'PF05222'
p6018
I5226
sS'PF05223'
p6019
I5227
sS'PF05220'
p6020
I5228
sS'PF05221'
p6021
I2871
sS'PF04799'
p6022
I5230
sS'PF04069'
p6023
I5231
sS'PF01548'
p6024
I5232
sS'PF04063'
p6025
I5233
sS'PF01542'
p6026
I5234
sS'PF01541'
p6027
I5235
sS'PF04060'
p6028
I3847
sS'PF01547'
p6029
I5237
sS'PF04066'
p6030
I3856
sS'PF01545'
p6031
I5239
sS'PF01544'
p6032
I5240
sS'PF00496'
p6033
I5241
sS'PF00497'
p6034
I5242
sS'PF00494'
p6035
I5243
sS'PF10379'
p6036
I5244
sS'PF00493'
p6037
I5245
sS'PF00490'
p6038
I5246
sS'PF00491'
p6039
I5247
sS'PF10372'
p6040
I5248
sS'PF10370'
p6041
I5249
sS'PF10371'
p6042
I5250
sS'PF00498'
p6043
I5251
sS'PF00499'
p6044
I5252
sS'PF02915'
p6045
I6525
sS'PF02914'
p6046
I6526
sS'PF04022'
p6047
I4867
sS'PF02664'
p6048
I6528
sS'PF02663'
p6049
I6529
sS'PF02662'
p6050
I6530
sS'PF02913'
p6051
I6755
sS'PF02660'
p6052
I6532
sS'PF05816'
p6053
I2563
sS'PF10952'
p6054
I5294
sS'PF10953'
p6055
I5295
sS'PF07269'
p6056
I5297
sS'PF08497'
p6057
I2067
sS'PF07261'
p6058
I5299
sS'PF06793'
p6059
I4175
sS'PF06792'
p6060
I211
sS'PF06791'
p6061
I5302
sS'PF06790'
p6062
I5303
sS'PF06796'
p6063
I5304
sS'PF06794'
p6064
I5305
sS'PF11021'
p6065
I4197
sS'PF11020'
p6066
I4198
sS'PF06799'
p6067
I5308
sS'PF06798'
p6068
I5309
sS'PF11026'
p6069
I4209
sS'PF08323'
p6070
I2072
sS'PF00153'
p6071
I2073
sS'PF10143'
p6072
I2082
sS'PF00158'
p6073
I2083
sS'PF06135'
p6074
I5328
sS'PF06134'
p6075
I5329
sS'PF06133'
p6076
I5330
sS'PF06131'
p6077
I5331
sS'PF06130'
p6078
I5332
sS'PF06139'
p6079
I5333
sS'PF03567'
p6080
I5342
sS'PF03564'
p6081
I5344
sS'PF03563'
p6082
I5345
sS'PF03562'
p6083
I5346
sS'PF03561'
p6084
I5347
sS'PF10570'
p6085
I6021
sS'PF10571'
p6086
I5349
sS'PF10575'
p6087
I5352
sS'PF10576'
p6088
I5353
sS'PF10578'
p6089
I5355
sS'PF02965'
p6090
I5356
sS'PF02966'
p6091
I5357
sS'PF02967'
p6092
I5358
sS'PF02960'
p6093
I5359
sS'PF07544'
p6094
I5360
sS'PF02962'
p6095
I4611
sS'PF02963'
p6096
I4616
sS'PF04492'
p6097
I5363
sS'PF04497'
p6098
I5380
sS'PF03309'
p6099
I5381
sS'PF03308'
p6100
I5382
sS'PF03302'
p6101
I5383
sS'PF03301'
p6102
I5384
sS'PF03307'
p6103
I5385
sS'PF03306'
p6104
I5386
sS'PF12367'
p6105
I5404
sS'PF12368'
p6106
I5407
sS'PF08895'
p6107
I5410
sS'PF00375'
p6108
I2106
sS'PF11625'
p6109
I5412
sS'PF01047'
p6110
I5414
sS'PF07543'
p6111
I5415
sS'PF01042'
p6112
I5416
sS'PF01043'
p6113
I5417
sS'PF01040'
p6114
I5418
sS'PF01041'
p6115
I5419
sS'PF01048'
p6116
I5425
sS'PF09210'
p6117
I5427
sS'PF09218'
p6118
I5433
sS'PF08030'
p6119
I5435
sS'PF08031'
p6120
I5436
sS'PF08032'
p6121
I5437
sS'PF08035'
p6122
I2123
sS'PF08036'
p6123
I5440
sS'PF08038'
p6124
I5083
sS'PF08039'
p6125
I5085
sS'PF08140'
p6126
I2112
sS'PF11143'
p6127
I5450
sS'PF02830'
p6128
I5451
sS'PF03120'
p6129
I5453
sS'PF01222'
p6130
I5458
sS'PF01223'
p6131
I5459
sS'PF01220'
p6132
I5460
sS'PF01226'
p6133
I5461
sS'PF01227'
p6134
I5462
sS'PF01225'
p6135
I5463
sS'PF01228'
p6136
I5464
sS'PF01229'
p6137
I5465
sS'PF02831'
p6138
I5467
sS'PF00795'
p6139
I5482
sS'PF00797'
p6140
I5483
sS'PF00796'
p6141
I5341
sS'PF00793'
p6142
I5485
sS'PF04474'
p6143
I5489
sS'PF04475'
p6144
I5490
sS'PF04476'
p6145
I5491
sS'PF07963'
p6146
I3557
sS'PF04471'
p6147
I5493
sS'PF04472'
p6148
I5494
sS'PF04473'
p6149
I5495
sS'PF00571'
p6150
I5505
sS'PF00570'
p6151
I5506
sS'PF00573'
p6152
I5504
sS'PF00572'
p6153
I5508
sS'PF00575'
p6154
I5509
sS'PF00574'
p6155
I5510
sS'PF00577'
p6156
I5511
sS'PF00576'
p6157
I5512
sS'PF00579'
p6158
I5513
sS'PF07074'
p6159
I2727
sS'PF07077'
p6160
I5515
sS'PF07076'
p6161
I5516
sS'PF07071'
p6162
I5517
sS'PF07070'
p6163
I5518
sS'PF07073'
p6164
I5519
sS'PF07072'
p6165
I5520
sS'PF06308'
p6166
I5560
sS'PF06309'
p6167
I5562
sS'PF06305'
p6168
I5529
sS'PF06306'
p6169
I5568
sS'PF06303'
p6170
I5578
sS'PF09846'
p6171
I5533
sS'PF09847'
p6172
I5534
sS'PF09844'
p6173
I5535
sS'PF09845'
p6174
I5536
sS'PF09842'
p6175
I5537
sS'PF09843'
p6176
I5538
sS'PF09840'
p6177
I5539
sS'PF09841'
p6178
I5540
sS'PF07525'
p6179
I5553
sS'PF09848'
p6180
I5541
sS'PF09849'
p6181
I5542
sS'PF03170'
p6182
I5554
sS'PF03171'
p6183
I5555
sS'PF03173'
p6184
I6293
sS'PF03174'
p6185
I5557
sS'PF03176'
p6186
I5558
sS'PF06985'
p6187
I5563
sS'PF06983'
p6188
I6449
sS'PF12559'
p6189
I5580
sS'PF01820'
p6190
I5581
sS'PF12555'
p6191
I5582
sS'PF01823'
p6192
I5583
sS'PF12553'
p6193
I5584
sS'PF03795'
p6194
I5593
sS'PF03796'
p6195
I5594
sS'PF03797'
p6196
I5595
sS'PF03790'
p6197
I5596
sS'PF03791'
p6198
I5597
sS'PF03793'
p6199
I5598
sS'PF03798'
p6200
I3239
sS'PF03799'
p6201
I6041
sS'PF04794'
p6202
I5607
sS'PF12087'
p6203
I5608
sS'PF12084'
p6204
I5609
sS'PF12082'
p6205
I5610
sS'PF12083'
p6206
I5611
sS'PF02559'
p6207
I5612
sS'PF02558'
p6208
I5613
sS'PF02554'
p6209
I5614
sS'PF02225'
p6210
I5615
sS'PF02556'
p6211
I5616
sS'PF02223'
p6212
I5617
sS'PF02222'
p6213
I5618
sS'PF02553'
p6214
I5619
sS'PF02552'
p6215
I5620
sS'PF10494'
p6216
I5636
sS'PF10725'
p6217
I5641
sS'PF10724'
p6218
I5642
sS'PF10727'
p6219
I5643
sS'PF10726'
p6220
I5644
sS'PF10721'
p6221
I5645
sS'PF10722'
p6222
I5647
sS'PF10728'
p6223
I5650
sS'PF05025'
p6224
I6451
sS'PF05023'
p6225
I5670
sS'PF04269'
p6226
I5671
sS'PF09537'
p6227
I5672
sS'PF09534'
p6228
I5673
sS'PF09532'
p6229
I5674
sS'PF09530'
p6230
I5675
sS'PF09531'
p6231
I5676
sS'PF04261'
p6232
I5677
sS'PF04260'
p6233
I5678
sS'PF04263'
p6234
I5679
sS'PF04262'
p6235
I6477
sS'PF04265'
p6236
I5681
sS'PF04264'
p6237
I5682
sS'PF04267'
p6238
I2973
sS'PF09539'
p6239
I5684
sS'PF09020'
p6240
I5685
sS'PF09021'
p6241
I5686
sS'PF09025'
p6242
I5687
sS'PF09026'
p6243
I5688
sS'PF05249'
p6244
I5697
sS'PF05241'
p6245
I5698
sS'PF05245'
p6246
I5699
sS'PF05247'
p6247
I5700
sS'PF00749'
p6248
I6598
sS'PF11452'
p6249
I5703
sS'PF01618'
p6250
I6606
sS'PF07798'
p6251
I5712
sS'PF07799'
p6252
I3686
sS'PF08775'
p6253
I6802
sS'PF08774'
p6254
I5715
sS'PF08772'
p6255
I6812
sS'PF08770'
p6256
I5718
sS'PF07793'
p6257
I5719
sS'PF08778'
p6258
I5720
sS'PF12420'
p6259
I5721
sS'PF04226'
p6260
I5723
sS'PF01613'
p6261
I6611
sS'PF01612'
p6262
I6612
sS'PF01565'
p6263
I5727
sS'PF01564'
p6264
I5728
sS'PF07322'
p6265
I1010
sS'PF04041'
p6266
I5730
sS'PF04043'
p6267
I5732
sS'PF04042'
p6268
I5733
sS'PF01610'
p6269
I6614
sS'PF04049'
p6270
I2018
sS'PF01568'
p6271
I92
sS'PF12425'
p6272
I2148
sS'PF00214'
p6273
I93
sS'PF00215'
p6274
I5743
sS'PF07536'
p6275
I95
sS'PF00217'
p6276
I3096
sS'PF00210'
p6277
I5746
sS'PF00211'
p6278
I5747
sS'PF07532'
p6279
I104
sS'PF07533'
p6280
I108
sS'PF07538'
p6281
I131
sS'PF10935'
p6282
I135
sS'PF11042'
p6283
I142
sS'PF01434'
p6284
I6618
sS'PF01433'
p6285
I6619
sS'PF01432'
p6286
I6620
sS'PF04403'
p6287
I5766
sS'PF04402'
p6288
I6622
sS'PF08856'
p6289
I5776
sS'PF08857'
p6290
I5777
sS'PF02294'
p6291
I4407
sS'PF08855'
p6292
I4408
sS'PF02836'
p6293
I5786
sS'PF02837'
p6294
I5484
sS'PF09607'
p6295
I6632
sS'PF02834'
p6296
I4411
sS'PF05936'
p6297
I6637
sS'PF06115'
p6298
I5801
sS'PF06114'
p6299
I5802
sS'PF06116'
p6300
I5804
sS'PF08222'
p6301
I6640
sS'PF05932'
p6302
I6641
sS'PF03549'
p6303
I5812
sS'PF09257'
p6304
I4416
sS'PF03099'
p6305
I5814
sS'PF03098'
p6306
I5815
sS'PF05930'
p6307
I5816
sS'PF09256'
p6308
I5817
sS'PF03092'
p6309
I5819
sS'PF03091'
p6310
I541
sS'PF03542'
p6311
I542
sS'PF03545'
p6312
I5822
sS'PF03096'
p6313
I2472
sS'PF03547'
p6314
I5824
sS'PF10558'
p6315
I5826
sS'PF10559'
p6316
I562
sS'PF09253'
p6317
I5829
sS'PF10550'
p6318
I5830
sS'PF10551'
p6319
I5831
sS'PF10556'
p6320
I5832
sS'PF10557'
p6321
I5833
sS'PF10555'
p6322
I5834
sS'PF09702'
p6323
I5836
sS'PF03893'
p6324
I5837
sS'PF03892'
p6325
I5838
sS'PF03891'
p6326
I633
sS'PF03321'
p6327
I637
sS'PF03320'
p6328
I5841
sS'PF03895'
p6329
I2574
sS'PF03894'
p6330
I5843
sS'PF03899'
p6331
I6654
sS'PF03328'
p6332
I5849
sS'PF07293'
p6333
I5856
sS'PF05495'
p6334
I5857
sS'PF05494'
p6335
I5858
sS'PF05496'
p6336
I5859
sS'PF05491'
p6337
I5860
sS'PF02944'
p6338
I5864
sS'PF02943'
p6339
I5866
sS'PF02941'
p6340
I5867
sS'PF12349'
p6341
I5868
sS'PF12348'
p6342
I5869
sS'PF11601'
p6343
I5878
sS'PF11600'
p6344
I5879
sS'PF11602'
p6345
I909
sS'PF11604'
p6346
I5882
sS'PF01020'
p6347
I5883
sS'PF01022'
p6348
I5884
sS'PF01023'
p6349
I5885
sS'PF01024'
p6350
I5886
sS'PF01025'
p6351
I5887
sS'PF01026'
p6352
I5888
sS'PF01027'
p6353
I5889
sS'PF01028'
p6354
I959
sS'PF01029'
p6355
I5891
sS'PF05978'
p6356
I4699
sS'PF08951'
p6357
I5893
sS'PF02055'
p6358
I5895
sS'PF02056'
p6359
I5896
sS'PF02057'
p6360
I5897
sS'PF02050'
p6361
I1001
sS'PF02052'
p6362
I5899
sS'PF09234'
p6363
I5900
sS'PF09237'
p6364
I1011
sS'PF09233'
p6365
I4538
sS'PF08956'
p6366
I6162
sS'PF00258'
p6367
I6660
sS'PF08018'
p6368
I5908
sS'PF08019'
p6369
I1502
sS'PF08548'
p6370
I5910
sS'PF08012'
p6371
I1068
sS'PF08013'
p6372
I1071
sS'PF08546'
p6373
I5916
sS'PF08547'
p6374
I302
sS'PF08540'
p6375
I4793
sS'PF08541'
p6376
I5919
sS'PF08014'
p6377
I1092
sS'PF08015'
p6378
I1097
sS'PF07980'
p6379
I3080
sS'PF01798'
p6380
I5924
sS'PF01799'
p6381
I5925
sS'PF01790'
p6382
I5928
sS'PF01791'
p6383
I5929
sS'PF01796'
p6384
I5930
sS'PF01797'
p6385
I5931
sS'PF01794'
p6386
I5932
sS'PF01795'
p6387
I5933
sS'PF07570'
p6388
I6662
sS'PF09490'
p6389
I5941
sS'PF09493'
p6390
I5942
sS'PF09492'
p6391
I5943
sS'PF09499'
p6392
I5945
sS'PF00775'
p6393
I5956
sS'PF00773'
p6394
I5958
sS'PF00772'
p6395
I5959
sS'PF00771'
p6396
I5960
sS'PF04458'
p6397
I1427
sS'PF04459'
p6398
I5976
sS'PF04456'
p6399
I5977
sS'PF04457'
p6400
I5978
sS'PF04454'
p6401
I5979
sS'PF04455'
p6402
I5980
sS'PF04452'
p6403
I5981
sS'PF04453'
p6404
I5982
sS'PF04450'
p6405
I5983
sS'PF10236'
p6406
I5985
sS'PF10230'
p6407
I5987
sS'PF00512'
p6408
I5992
sS'PF00510'
p6409
I5994
sS'PF00517'
p6410
I5995
sS'PF00515'
p6411
I5996
sS'PF00514'
p6412
I5997
sS'PF09820'
p6413
I6007
sS'PF09821'
p6414
I6008
sS'PF09822'
p6415
I6009
sS'PF09823'
p6416
I6010
sS'PF09824'
p6417
I6011
sS'PF09826'
p6418
I6013
sS'PF09827'
p6419
I6014
sS'PF09828'
p6420
I6015
sS'PF09829'
p6421
I6016
sS'PF03150'
p6422
I6024
sS'PF03151'
p6423
I6025
sS'PF03154'
p6424
I6026
sS'PF06324'
p6425
I6029
sS'PF06325'
p6426
I6030
sS'PF06322'
p6427
I6031
sS'PF11187'
p6428
I6034
sS'PF11182'
p6429
I6035
sS'PF11180'
p6430
I6036
sS'PF01803'
p6431
I5365
sS'PF12575'
p6432
I1946
sS'PF01807'
p6433
I1949
sS'PF01804'
p6434
I6045
sS'PF01808'
p6435
I6048
sS'PF01809'
p6436
I6049
sS'PF02183'
p6437
I6050
sS'PF11984'
p6438
I6053
sS'PF11980'
p6439
I2010
sS'PF11988'
p6440
I2023
sS'PF02208'
p6441
I2155
sS'PF02201'
p6442
I2178
sS'PF02203'
p6443
I6080
sS'PF02202'
p6444
I6081
sS'PF02205'
p6445
I6082
sS'PF04356'
p6446
I6117
sS'PF05003'
p6447
I2473
sS'PF05000'
p6448
I6119
sS'PF05001'
p6449
I6120
sS'PF05009'
p6450
I2485
sS'PF09002'
p6451
I2558
sS'PF09003'
p6452
I2560
sS'PF09000'
p6453
I6139
sS'PF09001'
p6454
I2566
sS'PF09554'
p6455
I2568
sS'PF09007'
p6456
I2570
sS'PF09004'
p6457
I6143
sS'PF09557'
p6458
I2572
sS'PF09558'
p6459
I6145
sS'PF09559'
p6460
I2578
sS'PF09008'
p6461
I6147
sS'PF09009'
p6462
I6148
sS'PF07195'
p6463
I6153
sS'PF05262'
p6464
I6154
sS'PF05263'
p6465
I2631
sS'PF05261'
p6466
I6156
sS'PF05264'
p6467
I6157
sS'PF05269'
p6468
I6158
sS'PF11479'
p6469
I2813
sS'PF11471'
p6470
I2829
sS'PF04203'
p6471
I6173
sS'PF04201'
p6472
I6174
sS'PF04207'
p6473
I2843
sS'PF04206'
p6474
I2849
sS'PF04205'
p6475
I6177
sS'PF04204'
p6476
I6178
sS'PF04209'
p6477
I6760
sS'PF04208'
p6478
I2866
sS'PF00185'
p6479
I6185
sS'PF00186'
p6480
I6186
sS'PF00187'
p6481
I6187
sS'PF00180'
p6482
I6188
sS'PF00181'
p6483
I6189
sS'PF00182'
p6484
I6190
sS'PF00183'
p6485
I6191
sS'PF00188'
p6486
I6193
sS'PF00189'
p6487
I6194
sS'PF08751'
p6488
I6196
sS'PF08750'
p6489
I6197
sS'PF08753'
p6490
I6198
sS'PF05917'
p6491
I2922
sS'PF08755'
p6492
I6200
sS'PF05911'
p6493
I678
sS'PF08757'
p6494
I6202
sS'PF05913'
p6495
I4005
sS'PF08759'
p6496
I2117
sS'PF08206'
p6497
I2947
sS'PF08204'
p6498
I2954
sS'PF08203'
p6499
I3440
sS'PF08201'
p6500
I6208
sS'PF06804'
p6501
I6708
sS'PF01588'
p6502
I6215
sS'PF01585'
p6503
I6217
sS'PF01584'
p6504
I6218
sS'PF01583'
p6505
I6219
sS'PF01582'
p6506
I6220
sS'PF01581'
p6507
I6221
sS'PF01580'
p6508
I3056
sS'PF06155'
p6509
I6712
sS'PF00238'
p6510
I6224
sS'PF07519'
p6511
I3076
sS'PF07516'
p6512
I6226
sS'PF00237'
p6513
I3082
sS'PF07514'
p6514
I6228
sS'PF00235'
p6515
I3088
sS'PF07512'
p6516
I3092
sS'PF07513'
p6517
I6231
sS'PF00230'
p6518
I3097
sS'PF00231'
p6519
I3101
sS'PF11064'
p6520
I6237
sS'PF11067'
p6521
I6238
sS'PF11066'
p6522
I3385
sS'PF00463'
p6523
I6240
sS'PF00462'
p6524
I3594
sS'PF07659'
p6525
I6241
sS'PF01269'
p6526
I6244
sS'PF04560'
p6527
I6247
sS'PF02937'
p6528
I6248
sS'PF04566'
p6529
I6250
sS'PF04567'
p6530
I6251
sS'PF10914'
p6531
I6255
sS'PF04565'
p6532
I6258
sS'PF04034'
p6533
I6259
sS'PF04519'
p6534
I2757
sS'PF04035'
p6535
I6260
sS'PF04740'
p6536
I6261
sS'PF06178'
p6537
I6264
sS'PF06173'
p6538
I6265
sS'PF06172'
p6539
I3438
sS'PF06170'
p6540
I6267
sS'PF06177'
p6541
I6268
sS'PF06176'
p6542
I6269
sS'PF06175'
p6543
I6270
sS'PF03523'
p6544
I6271
sS'PF03522'
p6545
I3461
sS'PF03527'
p6546
I6273
sS'PF04032'
p6547
I5019
sS'PF03524'
p6548
I3468
sS'PF03406'
p6549
I6276
sS'PF07031'
p6550
I6278
sS'PF00022'
p6551
I6280
sS'PF03400'
p6552
I6281
sS'PF02934'
p6553
I6282
sS'PF07035'
p6554
I6135
sS'PF03955'
p6555
I6284
sS'PF04039'
p6556
I4523
sS'PF02421'
p6557
I6287
sS'PF00025'
p6558
I6289
sS'PF02420'
p6559
I6291
sS'PF02130'
p6560
I2212
sS'PF02137'
p6561
I6298
sS'PF02424'
p6562
I6299
sS'PF04412'
p6563
I6300
sS'PF03051'
p6564
I6730
sS'PF03050'
p6565
I6731
sS'PF08984'
p6566
I6308
sS'PF02921'
p6567
I21
sS'PF02922'
p6568
I3834
sS'PF12328'
p6569
I3839
sS'PF08980'
p6570
I2703
sS'PF02697'
p6571
I3846
sS'PF02694'
p6572
I4790
sS'PF02927'
p6573
I6315
sS'PF12323'
p6574
I6316
sS'PF02929'
p6575
I6317
sS'PF02698'
p6576
I6318
sS'PF12320'
p6577
I3868
sS'PF08988'
p6578
I6320
sS'PF12325'
p6579
I6321
sS'PF12324'
p6580
I6322
sS'PF11666'
p6581
I6324
sS'PF11669'
p6582
I6325
sS'PF01008'
p6583
I6328
sS'PF01002'
p6584
I6332
sS'PF01003'
p6585
I6333
sS'PF01000'
p6586
I6334
sS'PF07653'
p6587
I2517
sS'PF01004'
p6588
I6336
sS'PF02078'
p6589
I6337
sS'PF02079'
p6590
I6338
sS'PF02074'
p6591
I6339
sS'PF02075'
p6592
I6340
sS'PF02073'
p6593
I6341
sS'PF02070'
p6594
I6342
sS'PF02071'
p6595
I6343
sS'PF04416'
p6596
I6344
sS'PF04864'
p6597
I6348
sS'PF07655'
p6598
I1241
sS'PF04414'
p6599
I6361
sS'PF04415'
p6600
I6366
sS'PF00759'
p6601
I6374
sS'PF08563'
p6602
I6379
sS'PF08560'
p6603
I6380
sS'PF08561'
p6604
I4295
sS'PF00750'
p6605
I6383
sS'PF00753'
p6606
I6384
sS'PF00752'
p6607
I6385
sS'PF00755'
p6608
I6386
sS'PF00754'
p6609
I6387
sS'PF00756'
p6610
I6388
sS'PF02244'
p6611
I6389
sS'PF09617'
p6612
I4354
sS'PF04439'
p6613
I6402
sS'PF09615'
p6614
I4361
sS'PF09614'
p6615
I1963
sS'PF09613'
p6616
I4366
sS'PF09611'
p6617
I6407
sS'PF09610'
p6618
I4369
sS'PF04430'
p6619
I4370
sS'PF04432'
p6620
I4372
sS'PF04434'
p6621
I6413
sS'PF09618'
p6622
I4384
sS'PF00535'
p6623
I6417
sS'PF00534'
p6624
I6418
sS'PF00536'
p6625
I6419
sS'PF00531'
p6626
I6420
sS'PF00533'
p6627
I6422
sS'PF00532'
p6628
I6423
sS'PF10211'
p6629
I6424
sS'PF10215'
p6630
I6426
sS'PF10216'
p6631
I4432
sS'PF08693'
p6632
I6429
sS'PF08695'
p6633
I198
sS'PF07167'
p6634
I6459
sS'PF07166'
p6635
I6460
sS'PF07164'
p6636
I6461
sS'PF07162'
p6637
I6462
sS'PF07161'
p6638
I6463
sS'PF07160'
p6639
I6464
sS'PF07168'
p6640
I6466
sS'PF06340'
p6641
I6469
sS'PF06342'
p6642
I4788
sS'PF06344'
p6643
I6472
sS'PF06345'
p6644
I6473
sS'PF06347'
p6645
I6474
sS'PF06348'
p6646
I6475
sS'PF04751'
p6647
I4863
sS'PF12515'
p6648
I4856
sS'PF00246'
p6649
I6495
sS'PF12616'
p6650
I6499
sS'PF02263'
p6651
I6500
sS'PF02261'
p6652
I6501
sS'PF02260'
p6653
I5017
sS'PF02267'
p6654
I5018
sS'PF02265'
p6655
I6505
sS'PF02264'
p6656
I6506
sS'PF10459'
p6657
I6516
sS'PF10458'
p6658
I6517
sS'PF10453'
p6659
I6518
sS'PF12399'
p6660
I6519
sS'PF02487'
p6661
I6533
sS'PF02486'
p6662
I6534
sS'PF02485'
p6663
I4875
sS'PF02482'
p6664
I6536
sS'PF02481'
p6665
I6537
sS'PF02480'
p6666
I6538
sS'PF05060'
p6667
I6541
sS'PF05063'
p6668
I6542
sS'PF05064'
p6669
I6543
sS'PF05065'
p6670
I6544
sS'PF05066'
p6671
I6545
sS'PF05067'
p6672
I6546
sS'PF05068'
p6673
I6547
sS'PF05069'
p6674
I6548
sS'PF09578'
p6675
I6558
sS'PF09579'
p6676
I6559
sS'PF09571'
p6677
I6561
sS'PF09574'
p6678
I6562
sS'PF09575'
p6679
I6563
sS'PF04317'
p6680
I6573
sS'PF04316'
p6681
I6577
sS'PF05289'
p6682
I891
sS'PF05284'
p6683
I6582
sS'PF05285'
p6684
I6583
sS'PF05280'
p6685
I6585
sS'PF05283'
p6686
I5561
sS'PF06433'
p6687
I1711
sS'PF04554'
p6688
I1927
sS'PF07218'
p6689
I6590
sS'PF11418'
p6690
I903
sS'PF11419'
p6691
I6593
sS'PF07110'
p6692
I2118
sS'PF04883'
p6693
I5705
sS'PF04229'
p6694
I6603
sS'PF04228'
p6695
I6604
sS'PF01619'
p6696
I5710
sS'PF04886'
p6697
I5711
sS'PF04889'
p6698
I3760
sS'PF04888'
p6699
I3768
sS'PF04227'
p6700
I6609
sS'PF01614'
p6701
I630
sS'PF04221'
p6702
I5724
sS'PF04220'
p6703
I5726
sS'PF04223'
p6704
I5731
sS'PF04222'
p6705
I6326
sS'PF07758'
p6706
I5762
sS'PF07759'
p6707
I6399
sS'PF07754'
p6708
I6623
sS'PF07755'
p6709
I6624
sS'PF07757'
p6710
I6625
sS'PF07750'
p6711
I6626
sS'PF07751'
p6712
I6627
sS'PF08229'
p6713
I5784
sS'PF05939'
p6714
I6636
sS'PF08221'
p6715
I5141
sS'PF08220'
p6716
I6638
sS'PF08223'
p6717
I6639
sS'PF05935'
p6718
I5808
sS'PF08225'
p6719
I5809
sS'PF02900'
p6720
I6773
sS'PF08735'
p6721
I1619
sS'PF05931'
p6722
I5821
sS'PF10156'
p6723
I6645
sS'PF02901'
p6724
I6774
sS'PF02670'
p6725
I6775
sS'PF04089'
p6726
I6652
sS'PF10152'
p6727
I6655
sS'PF04083'
p6728
I6656
sS'PF04082'
p6729
I4134
sS'PF04085'
p6730
I6658
sS'PF04087'
p6731
I6659
sS'PF07578'
p6732
I5907
sS'PF00250'
p6733
I5934
sS'PF00251'
p6734
I6663
sS'PF00252'
p6735
I6664
sS'PF00253'
p6736
I6665
sS'PF00254'
p6737
I6666
sS'PF00255'
p6738
I6667
sS'PF00256'
p6739
I6668
sS'PF07577'
p6740
I6669
sS'PF02300'
p6741
I6671
sS'PF02491'
p6742
I6783
sS'PF05800'
p6743
I2294
sS'PF07614'
p6744
I6679
sS'PF00141'
p6745
I6683
sS'PF01244'
p6746
I6685
sS'PF06483'
p6747
I6689
sS'PF06481'
p6748
I6690
sS'PF06480'
p6749
I6691
sS'PF06486'
p6750
I6693
sS'PF06485'
p6751
I6694
sS'PF01245'
p6752
I6697
sS'PF07286'
p6753
I6698
sS'PF07287'
p6754
I6699
sS'PF07284'
p6755
I6700
sS'PF07285'
p6756
I6701
sS'PF07282'
p6757
I6702
sS'PF07283'
p6758
I6703
sS'PF07288'
p6759
I6710
sS'PF06627'
p6760
I6223
sS'PF06626'
p6761
I6713
sS'PF06157'
p6762
I6714
sS'PF06156'
p6763
I6715
sS'PF06623'
p6764
I6716
sS'PF06150'
p6765
I6717
sS'PF06153'
p6766
I6718
sS'PF06620'
p6767
I6719
sS'PF01246'
p6768
I3396
sS'PF06158'
p6769
I6720
sS'PF06629'
p6770
I6721
sS'PF06628'
p6771
I6722
sS'PF03508'
p6772
I6724
sS'PF03059'
p6773
I6725
sS'PF03504'
p6774
I6726
sS'PF03055'
p6775
I6727
sS'PF03054'
p6776
I6728
sS'PF03500'
p6777
I6729
sS'PF03503'
p6778
I6303
sS'PF03502'
p6779
I6304
sS'PF01491'
p6780
I6735
sS'PF01493'
p6781
I6163
sS'PF01241'
p6782
I6746
sS'PF05728'
p6783
I6798
sS'PF01494'
p6784
I6749
sS'PF05725'
p6785
I6800
sS'PF07408'
p6786
I6754
sS'PF12304'
p6787
I6761
sS'PF12301'
p6788
I6762
sS'PF00610'
p6789
I3161
sS'PF12303'
p6790
I6764
sS'PF07400'
p6791
I6765
sS'PF02909'
p6792
I6767
sS'PF02678'
p6793
I6768
sS'PF02679'
p6794
I6769
sS'PF02674'
p6795
I6771
sS'PF02903'
p6796
I5565
sS'PF02676'
p6797
I4296
sS'PF02677'
p6798
I4304
sS'PF02906'
p6799
I6649
sS'PF02671'
p6800
I6776
sS'PF02672'
p6801
I6653
sS'PF02673'
p6802
I6778
sS'PF07404'
p6803
I5087
sS'PF11647'
p6804
I6681
sS'PF11643'
p6805
I6790
sS'PF08178'
p6806
I6791
sS'PF07253'
p6807
I6792
sS'PF00612'
p6808
I4747
sS'PF02018'
p6809
I6805
sS'PF02011'
p6810
I6808
sS'PF02012'
p6811
I6809
sS'PF03136'
p6812
I6810
sS'PF02016'
p6813
I6811
s.